(dp1
S'OriginalConfig'
p2
ccopy_reg
_reconstructor
p3
(cWMCore.Configuration
Configuration
p4
c__builtin__
object
p5
NtRp6
(dp7
S'Site'
p8
g3
(cWMCore.Configuration
ConfigSection
p9
g5
NtRp10
(dp11
S'_internal_skipChecks'
p12
I00
sS'_internal_documentation'
p13
S''
sS'_internal_settings'
p14
c__builtin__
set
p15
((lp16
S'storageSite'
p17
atRp18
sS'_internal_name'
p19
g8
sS'_internal_docstrings'
p20
(dp21
sS'_internal_children'
p22
g15
((ltRp23
sg17
S'T2_CH_CERN'
p24
sS'_internal_parent_ref'
p25
NsbsS'_internal_sections'
p26
(lp27
S'General'
p28
aS'JobType'
p29
aS'Data'
p30
ag8
aS'User'
p31
aS'Debug'
p32
asg28
g3
(g9
g5
NtRp33
(dp34
S'transferLogs'
p35
I01
sg12
I00
sg13
S''
sg14
g15
((lp36
g35
aS'transferOutputs'
p37
aS'workArea'
p38
aS'requestName'
p39
atRp40
sg19
g28
sg20
(dp41
sg37
I01
sg22
g15
((ltRp42
sg39
S'HIMB2_SC_Pixel_eff_cent_v1'
p43
sg25
Nsg38
S'CrabArea'
p44
sbsS'_internal_webapps'
p45
(lp46
sg31
g3
(g9
g5
NtRp47
(dp48
g12
I00
sg13
S''
sg14
g15
((ltRp49
sg19
g31
sg20
(dp50
sg22
g15
((ltRp51
sg25
NsbsS'_internal_components'
p52
(lp53
sg32
g3
(g9
g5
NtRp54
(dp55
g12
I00
sg13
S''
sg14
g15
((ltRp56
sg19
g32
sg20
(dp57
sg22
g15
((ltRp58
sg25
Nsbsg30
g3
(g9
g5
NtRp59
(dp60
S'inputDataset'
p61
S'/HIMinimumBias2/HIRun2015-25Aug2016-v1/AOD'
p62
sg12
I00
sS'unitsPerJob'
p63
I20
sg13
S''
sg14
g15
((lp64
g61
aS'publication'
p65
ag63
aS'splitting'
p66
aS'lumiMask'
p67
aS'useParent'
p68
aS'outLFNDirBase'
p69
atRp70
sg19
g30
sg66
S'LumiBased'
p71
sg20
(dp72
sg68
I00
sg22
g15
((ltRp73
sg69
S'/store/group/phys_heavyions/qwang/PbPb2015_cumu/'
p74
sg25
Nsg67
S'/afs/cern.ch/cms/CAF/CMSCOMM/COMM_DQM/certification/Collisions15/HI/Cert_262548-263757_PromptReco_HICollisions15_JSON_v2.txt'
p75
sg65
I00
sbsg29
g3
(g9
g5
NtRp76
(dp77
S'maxJobRuntimeMin'
p78
I2500
sg12
I00
sg13
S''
sg14
g15
((lp79
S'psetName'
p80
aS'pluginName'
p81
aS'inputFiles'
p82
ag78
atRp83
sg19
g29
sg20
(dp84
sg81
S'Analysis'
p85
sg22
g15
((ltRp86
sg80
S'qw_PbPb15_HIMB2_pixel_v1.py'
p87
sg25
Nsg82
(lp88
S'EffCorrectionsPixel_TT_pt_0_10_v2.root'
p89
asbsbsS'voGroup'
p90
S''
sS'Server'
p91
S'cmsweb.cern.ch'
p92
sS'instance'
p93
S'prod'
p94
sS'RequestName'
p95
V170427_131539:qwang_crab_HIMB2_SC_Pixel_eff_cent_v1
p96
sS'voRole'
p97
S'NULL'
p98
sS'Port'
p99
S''
s.