ccopy_reg
_reconstructor
p0
(cFWCore.ParameterSet.Config
Process
p1
c__builtin__
object
p2
Ntp3
Rp4
(dp5
S'CaloGeometryBuilder'
p6
g0
(cFWCore.ParameterSet.Modules
ESProducer
p7
g2
Ntp8
Rp9
(dp10
S'_Parameterizable__parameterNames'
p11
(lp12
S'SelectedCalos'
p13
asS'_isFrozen'
p14
I00
sS'_isModified'
p15
I00
sS'_lineNumber'
p16
I40
sS'_filename'
p17
S'/cvmfs/cms.cern.ch/slc6_amd64_gcc491/cms/cmssw-patch/CMSSW_7_5_8_patch3/python/FWCore/ParameterSet/Modules.py'
p18
sg13
g0
(cFWCore.ParameterSet.Types
vstring
p19
c__builtin__
list
p20
(lp21
S'HCAL'
p22
aS'ZDC'
p23
aS'CASTOR'
p24
aS'EcalBarrel'
p25
aS'EcalEndcap'
p26
aS'EcalPreshower'
p27
aS'TOWER'
p28
atp29
Rp30
(dp31
g14
I00
sS'_ParameterTypeBase__isTracked'
p32
I01
sg15
I00
sS'_nPerLine'
p33
I1
sbsS'_Labelable__label'
p34
g6
sS'_TypedParameterizable__type'
p35
g6
sbsS'_Process__sequences'
p36
(dp37
S'endOfProcess'
p38
g0
(cFWCore.ParameterSet.SequenceTypes
Sequence
p39
g2
Ntp40
Rp41
(dp42
g14
I00
sS'_seq'
p43
g0
(cFWCore.ParameterSet.SequenceTypes
_SequenceCollection
p44
g2
Ntp45
Rp46
(dp47
S'_collection'
p48
(lp49
g0
(cFWCore.ParameterSet.Modules
EDProducer
p50
g2
Ntp51
Rp52
(dp53
g11
(lp54
S'deleteAfterCopy'
p55
aS'Verbosity'
p56
aS'Frequency'
p57
aS'Name'
p58
aS'MEPathToSave'
p59
asg14
I00
sg15
I00
sg55
g0
(cFWCore.ParameterSet.Types
bool
p60
g2
Ntp61
Rp62
(dp63
g14
I00
sg32
I00
sS'_value'
p64
I01
sg15
I00
sbsg17
S'/cvmfs/cms.cern.ch/slc6_amd64_gcc491/cms/cmssw-patch/CMSSW_7_5_8_patch3/python/DQMServices/Components/MEtoEDMConverter_cfi.py'
p65
sg56
g0
(cFWCore.ParameterSet.Types
int32
p66
g2
Ntp67
Rp68
(dp69
g14
I00
sg32
I00
sg64
I0
sg15
I00
sbsg57
g0
(g66
g2
Ntp70
Rp71
(dp72
g14
I00
sg32
I00
sg64
I50
sg15
I00
sbsg16
I10
sg34
S'MEtoEDMConverter'
p73
sg59
g0
(cFWCore.ParameterSet.Types
string
p74
g2
Ntp75
Rp76
(dp77
g14
I00
sg32
I00
sg64
S''
p78
sg15
I00
sbsg35
g73
sg58
g0
(g74
g2
Ntp79
Rp80
(dp81
g14
I00
sg32
I00
sg64
g73
sg15
I00
sbsbasbsg15
I00
sg34
g38
sbsS'hfposFilter'
p82
g0
(g39
g2
Ntp83
Rp84
(dp85
g14
I00
sg43
g0
(g44
g2
Ntp86
Rp87
(dp88
g48
(lp89
g0
(g39
g2
Ntp90
Rp91
(dp92
g14
I00
sg43
g0
(g44
g2
Ntp93
Rp94
(dp95
g48
(lp96
g0
(g50
g2
Ntp97
Rp98
(dp99
g11
(lp100
S'minimumE'
p101
aS'verbose'
p102
aS'minimumEt'
p103
aS'src'
p104
asg14
I00
sg102
g0
(g66
g2
Ntp105
Rp106
(dp107
g14
I00
sg32
I00
sg64
I0
sg15
I00
sbsg104
g0
(cFWCore.ParameterSet.Types
InputTag
p108
g2
Ntp109
Rp110
(dp111
g14
I00
sg32
I01
sg15
I00
sS'_InputTag__moduleLabel'
p112
S'towerMaker'
p113
sS'_InputTag__processName'
p114
g78
sS'_InputTag__productInstance'
p115
g78
sbsg17
S'/afs/cern.ch/work/q/qwang/cleanroomRun2/Ana/CMSSW_7_5_8_patch3/python/HeavyIonsAnalysis/Configuration/hfCoincFilter_cff.py'
p116
sg101
g0
(cFWCore.ParameterSet.Types
double
p117
g2
Ntp118
Rp119
(dp120
g14
I00
sg32
I01
sg64
F3.0
sg15
I00
sbsg16
I8
sg103
g0
(g117
g2
Ntp121
Rp122
(dp123
g14
I00
sg32
I01
sg64
F0.0
sg15
I00
sbsg34
S'towersAboveThreshold'
p124
sg35
S'CaloTowerCandidateCreator'
p125
sg15
I00
sbag0
(cFWCore.ParameterSet.Modules
EDFilter
p126
g2
Ntp127
Rp128
(dp129
g11
(lp130
g104
aS'etaMin'
p131
aS'etaMax'
p132
aS'ptMin'
p133
asg14
I00
sg15
I00
sg104
g0
(g108
g2
Ntp134
Rp135
(dp136
g14
I00
sg32
I01
sg15
I00
sg112
g124
sg114
g78
sg115
g78
sbsg17
g116
sg131
g0
(g117
g2
Ntp137
Rp138
(dp139
g14
I00
sg32
I01
sg64
F3.0
sg15
I00
sbsg16
I16
sg133
g0
(g117
g2
Ntp140
Rp141
(dp142
g14
I00
sg32
I01
sg64
I0
sg15
I00
sbsg34
S'hfPosTowers'
p143
sg132
g0
(g117
g2
Ntp144
Rp145
(dp146
g14
I00
sg32
I01
sg64
F6.0
sg15
I00
sbsg35
S'EtaPtMinCandSelector'
p147
sbasbsg15
I00
sg34
S'hfposTowers'
p148
sbag0
(g126
g2
Ntp149
Rp150
(dp151
g11
(lp152
g104
aS'minNumber'
p153
asg14
I00
sg15
I00
sg153
g0
(cFWCore.ParameterSet.Types
uint32
p154
g2
Ntp155
Rp156
(dp157
g14
I00
sg32
I01
sg64
I1
sg15
I00
sbsg104
g0
(g108
g2
Ntp158
Rp159
(dp160
g14
I00
sg32
I01
sg15
I00
sg112
g143
sg114
g78
sg115
g78
sbsg17
g116
sg16
I39
sg34
S'hfPosFilter'
p161
sg35
S'CandCountFilter'
p162
sbasbsg15
I00
sg34
g82
sbsS'endOfProcess_withComparison'
p163
g0
(g39
g2
Ntp164
Rp165
(dp166
g14
I00
sg43
g0
(g44
g2
Ntp167
Rp168
(dp169
g48
(lp170
g52
ag0
(cFWCore.ParameterSet.Modules
EDAnalyzer
p171
g2
Ntp172
Rp173
(dp174
g11
(lp175
S'Diffgoodness'
p176
aS'processRef'
p177
aS'dirDepth'
p178
aS'KSgoodness'
p179
aS'runInstance'
p180
aS'MEtoEDMLabel'
p181
aS'autoProcess'
p182
aS'processNew'
p183
aS'OverAllgoodness'
p184
aS'lumiInstance'
p185
asg14
I00
sg176
g0
(g117
g2
Ntp186
Rp187
(dp188
g14
I00
sg32
I01
sg64
F0.1
sg15
I00
sbsg177
g0
(g74
g2
Ntp189
Rp190
(dp191
g14
I00
sg32
I01
sg64
S'HLT'
p192
sg15
I00
sbsg15
I00
sg16
I20
sg178
g0
(g154
g2
Ntp193
Rp194
(dp195
g14
I00
sg32
I01
sg64
I1
sg15
I00
sbsg17
S'/cvmfs/cms.cern.ch/slc6_amd64_gcc491/cms/cmssw-patch/CMSSW_7_5_8_patch3/python/DQMServices/Components/MEtoMEComparitor_cfi.py'
p196
sg179
g0
(g117
g2
Ntp197
Rp198
(dp199
g14
I00
sg32
I01
sg64
F0.9
sg15
I00
sbsg180
g0
(g74
g2
Ntp200
Rp201
(dp202
g14
I00
sg32
I01
sg64
S'MEtoEDMConverterRun'
p203
sg15
I00
sbsg181
g0
(g74
g2
Ntp204
Rp205
(dp206
g14
I00
sg32
I01
sg64
g73
sg15
I00
sbsg185
g0
(g74
g2
Ntp207
Rp208
(dp209
g14
I00
sg32
I01
sg64
S'MEtoEDMConverterLumi'
p210
sg15
I00
sbsg182
g0
(g60
g2
Ntp211
Rp212
(dp213
g14
I00
sg32
I01
sg64
I01
sg15
I00
sbsg34
S'MEtoMEComparitor'
p214
sg183
g0
(g74
g2
Ntp215
Rp216
(dp217
g14
I00
sg32
I01
sg64
S'RERECO'
p218
sg15
I00
sbsg184
g0
(g117
g2
Ntp219
Rp220
(dp221
g14
I00
sg32
I01
sg64
F0.9
sg15
I00
sbsg35
g214
sbasbsg15
I00
sg34
g163
sbsS'hfCoincFilter'
p222
g0
(g39
g2
Ntp223
Rp224
(dp225
g14
I00
sg43
g0
(g44
g2
Ntp226
Rp227
(dp228
g48
(lp229
g98
ag128
ag0
(g126
g2
Ntp230
Rp231
(dp232
g11
(lp233
g104
ag131
ag132
ag133
asg14
I00
sg15
I00
sg104
g0
(g108
g2
Ntp234
Rp235
(dp236
g14
I00
sg32
I01
sg15
I00
sg112
g124
sg114
g78
sg115
g78
sbsg17
g116
sg131
g0
(g117
g2
Ntp237
Rp238
(dp239
g14
I00
sg32
I01
sg64
F-6.0
sg15
I00
sbsg16
I24
sg133
g0
(g117
g2
Ntp240
Rp241
(dp242
g14
I00
sg32
I01
sg64
I0
sg15
I00
sbsg34
S'hfNegTowers'
p243
sg132
g0
(g117
g2
Ntp244
Rp245
(dp246
g14
I00
sg32
I01
sg64
F-3.0
sg15
I00
sbsg35
g147
sbag150
ag0
(g126
g2
Ntp247
Rp248
(dp249
g11
(lp250
g104
ag153
asg14
I00
sg15
I00
sg153
g0
(g154
g2
Ntp251
Rp252
(dp253
g14
I00
sg32
I01
sg64
I1
sg15
I00
sbsg104
g0
(g108
g2
Ntp254
Rp255
(dp256
g14
I00
sg32
I01
sg15
I00
sg112
g243
sg114
g78
sg115
g78
sbsg17
g116
sg16
I45
sg34
S'hfNegFilter'
p257
sg35
g162
sbasbsg15
I00
sg34
g222
sbsS'vectMonW'
p258
g0
(g39
g2
Ntp259
Rp260
(dp261
g14
I00
sg43
g0
(g44
g2
Ntp262
Rp263
(dp264
g48
(lp265
g0
(g171
g2
Ntp266
Rp267
(dp268
g11
(lp269
S'start'
p270
ag104
aS'end'
p271
aS'Nbins'
p272
asg14
I00
sg271
g0
(g117
g2
Ntp273
Rp274
(dp275
g14
I00
sg32
I00
sg64
I220
sg15
I00
sbsg15
I00
sg272
g0
(g66
g2
Ntp276
Rp277
(dp278
g14
I00
sg32
I00
sg64
I220
sg15
I00
sbsg104
g0
(g108
g2
Ntp279
Rp280
(dp281
g14
I00
sg32
I00
sg15
I00
sg112
S'centralityBin'
p282
sg114
g78
sg115
S'HFtowers'
p283
sbsg17
S'/afs/cern.ch/work/q/qwang/cleanroomRun2/Ana/CMSSW_7_5_8_patch3/src/QWAna/QWSC/run2/PbPb_HIMB2_pixel_eff.py'
p284
sg270
g0
(g117
g2
Ntp285
Rp286
(dp287
g14
I00
sg32
I00
sg64
I0
sg15
I00
sbsg16
I31
sg34
S'histNoff'
p288
sg35
S'QWHistAnalyzer'
p289
sbag0
(g171
g2
Ntp290
Rp291
(dp292
g11
(lp293
g104
aS'hend'
p294
aS'hstart'
p295
aS'cNbins'
p296
aS'cstart'
p297
aS'hNbins'
p298
aS'cend'
p299
asg14
I00
sg296
g0
(g66
g2
Ntp300
Rp301
(dp302
g14
I00
sg32
I00
sg64
I1000
sg15
I00
sbsg15
I00
sg104
g0
(g108
g2
Ntp303
Rp304
(dp305
g14
I00
sg32
I00
sg15
I00
sg112
S'QWEvent'
p306
sg114
g78
sg115
S'phi'
p307
sbsg17
g284
sg295
g0
(g117
g2
Ntp308
Rp309
(dp310
g14
I00
sg32
I00
sg64
I0
sg15
I00
sbsg294
g0
(g117
g2
Ntp311
Rp312
(dp313
g14
I00
sg32
I00
sg64
I5000
sg15
I00
sbsg297
g0
(g117
g2
Ntp314
Rp315
(dp316
g14
I00
sg32
I00
sg64
F-3.141592653589793
sg15
I00
sbsg16
I41
sg299
g0
(g117
g2
Ntp317
Rp318
(dp319
g14
I00
sg32
I00
sg64
F3.141592653589793
sg15
I00
sbsg34
S'vectPhi'
p320
sg298
g0
(g66
g2
Ntp321
Rp322
(dp323
g14
I00
sg32
I00
sg64
I5000
sg15
I00
sbsg35
S'QWVectorAnalyzer'
p324
sbag0
(g171
g2
Ntp325
Rp326
(dp327
g11
(lp328
g104
ag294
ag295
ag296
ag297
ag298
ag299
asg14
I00
sg296
g0
(g66
g2
Ntp329
Rp330
(dp331
g14
I00
sg32
I00
sg64
I1000
sg15
I00
sbsg15
I00
sg104
g0
(g108
g2
Ntp332
Rp333
(dp334
g14
I00
sg32
I00
sg15
I00
sg112
g306
sg114
g78
sg115
S'pt'
p335
sbsg17
g284
sg295
g0
(g117
g2
Ntp336
Rp337
(dp338
g14
I00
sg32
I00
sg64
I0
sg15
I00
sbsg294
g0
(g117
g2
Ntp339
Rp340
(dp341
g14
I00
sg32
I00
sg64
I5000
sg15
I00
sbsg297
g0
(g117
g2
Ntp342
Rp343
(dp344
g14
I00
sg32
I00
sg64
I0
sg15
I00
sbsg16
I51
sg299
g0
(g117
g2
Ntp345
Rp346
(dp347
g14
I00
sg32
I00
sg64
I5
sg15
I00
sbsg34
S'vectPt'
p348
sg298
g0
(g66
g2
Ntp349
Rp350
(dp351
g14
I00
sg32
I00
sg64
I5000
sg15
I00
sbsg35
g324
sbag0
(g171
g2
Ntp352
Rp353
(dp354
g11
(lp355
g104
ag294
ag295
ag296
ag297
ag298
ag299
asg14
I00
sg296
g0
(g66
g2
Ntp356
Rp357
(dp358
g14
I00
sg32
I00
sg64
I1000
sg15
I00
sbsg15
I00
sg104
g0
(g108
g2
Ntp359
Rp360
(dp361
g14
I00
sg32
I00
sg15
I00
sg112
g306
sg114
g78
sg115
S'eta'
p362
sbsg17
g284
sg295
g0
(g117
g2
Ntp363
Rp364
(dp365
g14
I00
sg32
I00
sg64
I0
sg15
I00
sbsg294
g0
(g117
g2
Ntp366
Rp367
(dp368
g14
I00
sg32
I00
sg64
I5000
sg15
I00
sbsg297
g0
(g117
g2
Ntp369
Rp370
(dp371
g14
I00
sg32
I00
sg64
F-2.5
sg15
I00
sbsg16
I61
sg299
g0
(g117
g2
Ntp372
Rp373
(dp374
g14
I00
sg32
I00
sg64
F2.5
sg15
I00
sbsg34
S'vectEta'
p375
sg298
g0
(g66
g2
Ntp376
Rp377
(dp378
g14
I00
sg32
I00
sg64
I5000
sg15
I00
sbsg35
g324
sbag0
(g171
g2
Ntp379
Rp380
(dp381
g11
(lp382
g104
ag296
ag295
ag294
ag297
aS'srcW'
p383
ag298
ag299
asg14
I00
sg294
g0
(g117
g2
Ntp384
Rp385
(dp386
g14
I00
sg32
I00
sg64
I5000
sg15
I00
sbsg15
I00
sg104
g0
(g108
g2
Ntp387
Rp388
(dp389
g14
I00
sg32
I00
sg15
I00
sg112
g306
sg115
g307
sg114
g78
sbsg17
g284
sg295
g0
(g117
g2
Ntp390
Rp391
(dp392
g14
I00
sg32
I00
sg64
I0
sg15
I00
sbsg296
g0
(g66
g2
Ntp393
Rp394
(dp395
g14
I00
sg32
I00
sg64
I1000
sg15
I00
sbsg297
g0
(g117
g2
Ntp396
Rp397
(dp398
g14
I00
sg32
I00
sg64
F-3.141592653589793
sg15
I00
sbsg299
g0
(g117
g2
Ntp399
Rp400
(dp401
g14
I00
sg32
I00
sg64
F3.141592653589793
sg15
I00
sbsg16
I65
sg383
g0
(g108
g2
Ntp402
Rp403
(dp404
g14
I00
sg32
I00
sg15
I00
sg112
g306
sg114
g78
sg115
S'weight'
p405
sbsg34
S'vectPhiW'
p406
sg298
g0
(g66
g2
Ntp407
Rp408
(dp409
g14
I00
sg32
I00
sg64
I5000
sg15
I00
sbsg35
g324
sbag0
(g171
g2
Ntp410
Rp411
(dp412
g11
(lp413
g104
ag296
ag295
ag294
ag297
ag383
ag298
ag299
asg14
I00
sg294
g0
(g117
g2
Ntp414
Rp415
(dp416
g14
I00
sg32
I00
sg64
I5000
sg15
I00
sbsg15
I00
sg104
g0
(g108
g2
Ntp417
Rp418
(dp419
g14
I00
sg32
I00
sg15
I00
sg112
g306
sg115
g335
sg114
g78
sbsg17
g284
sg295
g0
(g117
g2
Ntp420
Rp421
(dp422
g14
I00
sg32
I00
sg64
I0
sg15
I00
sbsg296
g0
(g66
g2
Ntp423
Rp424
(dp425
g14
I00
sg32
I00
sg64
I1000
sg15
I00
sbsg297
g0
(g117
g2
Ntp426
Rp427
(dp428
g14
I00
sg32
I00
sg64
I0
sg15
I00
sbsg299
g0
(g117
g2
Ntp429
Rp430
(dp431
g14
I00
sg32
I00
sg64
I5
sg15
I00
sbsg16
I64
sg383
g0
(g108
g2
Ntp432
Rp433
(dp434
g14
I00
sg32
I00
sg15
I00
sg112
g306
sg114
g78
sg115
g405
sbsg34
S'vectPtW'
p435
sg298
g0
(g66
g2
Ntp436
Rp437
(dp438
g14
I00
sg32
I00
sg64
I5000
sg15
I00
sbsg35
g324
sbag0
(g171
g2
Ntp439
Rp440
(dp441
g11
(lp442
g104
ag296
ag295
ag294
ag297
ag383
ag298
ag299
asg14
I00
sg294
g0
(g117
g2
Ntp443
Rp444
(dp445
g14
I00
sg32
I00
sg64
I5000
sg15
I00
sbsg15
I00
sg104
g0
(g108
g2
Ntp446
Rp447
(dp448
g14
I00
sg32
I00
sg15
I00
sg112
g306
sg115
g362
sg114
g78
sbsg17
g284
sg295
g0
(g117
g2
Ntp449
Rp450
(dp451
g14
I00
sg32
I00
sg64
I0
sg15
I00
sbsg296
g0
(g66
g2
Ntp452
Rp453
(dp454
g14
I00
sg32
I00
sg64
I1000
sg15
I00
sbsg297
g0
(g117
g2
Ntp455
Rp456
(dp457
g14
I00
sg32
I00
sg64
F-2.5
sg15
I00
sbsg299
g0
(g117
g2
Ntp458
Rp459
(dp460
g14
I00
sg32
I00
sg64
F2.5
sg15
I00
sbsg16
I63
sg383
g0
(g108
g2
Ntp461
Rp462
(dp463
g14
I00
sg32
I00
sg15
I00
sg112
g306
sg114
g78
sg115
g405
sbsg34
S'vectEtaW'
p464
sg298
g0
(g66
g2
Ntp465
Rp466
(dp467
g14
I00
sg32
I00
sg64
I5000
sg15
I00
sbsg35
g324
sbasbsg15
I00
sg34
g258
sbsS'hfnegFilter2'
p468
g0
(g39
g2
Ntp469
Rp470
(dp471
g14
I00
sg43
g0
(g44
g2
Ntp472
Rp473
(dp474
g48
(lp475
g0
(g39
g2
Ntp476
Rp477
(dp478
g14
I00
sg43
g0
(g44
g2
Ntp479
Rp480
(dp481
g48
(lp482
g98
ag231
asbsg15
I00
sg34
S'hfnegTowers'
p483
sbag0
(g126
g2
Ntp484
Rp485
(dp486
g11
(lp487
g104
ag153
asg14
I00
sg15
I00
sg153
g0
(g154
g2
Ntp488
Rp489
(dp490
g14
I00
sg32
I01
sg64
I2
sg15
I00
sbsg104
g0
(g108
g2
Ntp491
Rp492
(dp493
g14
I00
sg32
I01
sg15
I00
sg112
g243
sg115
g78
sg114
g78
sbsg17
g116
sg16
I68
sg34
S'hfNegFilter2'
p494
sg35
g162
sbasbsg15
I00
sg34
g468
sbsS'hfnegFilter3'
p495
g0
(g39
g2
Ntp496
Rp497
(dp498
g14
I00
sg43
g0
(g44
g2
Ntp499
Rp500
(dp501
g48
(lp502
g477
ag0
(g126
g2
Ntp503
Rp504
(dp505
g11
(lp506
g104
ag153
asg14
I00
sg15
I00
sg153
g0
(g154
g2
Ntp507
Rp508
(dp509
g14
I00
sg32
I01
sg64
I3
sg15
I00
sbsg104
g0
(g108
g2
Ntp510
Rp511
(dp512
g14
I00
sg32
I01
sg15
I00
sg112
g243
sg115
g78
sg114
g78
sbsg17
g116
sg16
I87
sg34
S'hfNegFilter3'
p513
sg35
g162
sbasbsg15
I00
sg34
g495
sbsS'makeEvent'
p514
g0
(g39
g2
Ntp515
Rp516
(dp517
g14
I00
sg43
g0
(g44
g2
Ntp518
Rp519
(dp520
g48
(lp521
g0
(g50
g2
Ntp522
Rp523
(dp524
g11
(lp525
S'nonDefaultGlauberModel'
p526
aS'centralityVariable'
p527
aS'pPbRunFlip'
p528
aS'Centrality'
p529
asg14
I00
sg527
g0
(g74
g2
Ntp530
Rp531
(dp532
g14
I00
sg32
I01
sg64
g283
sg15
I00
sbsg15
I00
sg16
I6
sg17
g284
sg528
g0
(g154
g2
Ntp533
Rp534
(dp535
g14
I00
sg32
I01
sg64
I99999999
sg15
I00
sbsg529
g0
(g108
g2
Ntp536
Rp537
(dp538
g14
I00
sg32
I01
sg15
I00
sg112
S'hiCentrality'
p539
sg114
g78
sg115
g78
sbsg34
g282
sg35
S'CentralityBinProducer'
p540
sg526
g0
(g74
g2
Ntp541
Rp542
(dp543
g14
I00
sg32
I01
sg64
g78
sg15
I00
sbsbag0
(g50
g2
Ntp544
Rp545
(dp546
g11
(lp547
S'trackSrc'
p548
aS'ptMax'
p549
aS'centralitySrc'
p550
aS'Etamin'
p551
aS'pterrorpt'
p552
aS'dzdzerror'
p553
aS'vertexSrc'
p554
aS'fweight'
p555
aS'd0d0error'
p556
aS'Etamax'
p557
ag133
asg14
I00
sg556
g0
(g117
g2
Ntp558
Rp559
(dp560
g14
I00
sg32
I00
sg64
F3.0
sg15
I00
sbsg15
I00
sg548
g0
(g108
g2
Ntp561
Rp562
(dp563
g14
I00
sg32
I00
sg15
I00
sg112
S'hiGeneralAndPixelTracks'
p564
sg114
g78
sg115
g78
sbsg557
g0
(g117
g2
Ntp565
Rp566
(dp567
g14
I00
sg32
I00
sg64
F2.4
sg15
I00
sbsg133
g0
(g117
g2
Ntp568
Rp569
(dp570
g14
I00
sg32
I00
sg64
F0.3
sg15
I00
sbsg551
g0
(g117
g2
Ntp571
Rp572
(dp573
g14
I00
sg32
I00
sg64
F-2.4
sg15
I00
sbsg552
g0
(g117
g2
Ntp574
Rp575
(dp576
g14
I00
sg32
I00
sg64
F0.1
sg15
I00
sbsg16
I21
sg553
g0
(g117
g2
Ntp577
Rp578
(dp579
g14
I00
sg32
I00
sg64
F3.0
sg15
I00
sbsg17
g284
sg34
g306
sg555
g0
(g108
g2
Ntp580
Rp581
(dp582
g14
I00
sg32
I00
sg15
I00
sg112
S'EffCorrectionsPixel_TT_pt_0_10_v2.root'
p583
sg114
g78
sg115
g78
sbsg549
g0
(g117
g2
Ntp584
Rp585
(dp586
g14
I00
sg32
I00
sg64
F3.0
sg15
I00
sbsg550
g0
(g108
g2
Ntp587
Rp588
(dp589
g14
I00
sg32
I00
sg15
I00
sg112
g282
sg114
g78
sg115
g283
sbsg35
S'QWEventProducer'
p590
sg554
g0
(g108
g2
Ntp591
Rp592
(dp593
g14
I00
sg32
I00
sg15
I00
sg112
S'hiSelectedVertex'
p594
sg114
g78
sg115
g78
sbsbasbsg15
I00
sg34
g514
sbsS'hfnegFilter4'
p595
g0
(g39
g2
Ntp596
Rp597
(dp598
g14
I00
sg43
g0
(g44
g2
Ntp599
Rp600
(dp601
g48
(lp602
g477
ag0
(g126
g2
Ntp603
Rp604
(dp605
g11
(lp606
g104
ag153
asg14
I00
sg15
I00
sg153
g0
(g154
g2
Ntp607
Rp608
(dp609
g14
I00
sg32
I01
sg64
I4
sg15
I00
sbsg104
g0
(g108
g2
Ntp610
Rp611
(dp612
g14
I00
sg32
I01
sg15
I00
sg112
g243
sg115
g78
sg114
g78
sbsg17
g116
sg16
I107
sg34
S'hfNegFilter4'
p613
sg35
g162
sbasbsg15
I00
sg34
g595
sbsS'hfnegFilter5'
p614
g0
(g39
g2
Ntp615
Rp616
(dp617
g14
I00
sg43
g0
(g44
g2
Ntp618
Rp619
(dp620
g48
(lp621
g477
ag0
(g126
g2
Ntp622
Rp623
(dp624
g11
(lp625
g104
ag153
asg14
I00
sg15
I00
sg153
g0
(g154
g2
Ntp626
Rp627
(dp628
g14
I00
sg32
I01
sg64
I5
sg15
I00
sbsg104
g0
(g108
g2
Ntp629
Rp630
(dp631
g14
I00
sg32
I01
sg15
I00
sg112
g243
sg115
g78
sg114
g78
sbsg17
g116
sg16
I126
sg34
S'hfNegFilter5'
p632
sg35
g162
sbasbsg15
I00
sg34
g614
sbsS'hfnegFilter'
p633
g0
(g39
g2
Ntp634
Rp635
(dp636
g14
I00
sg43
g0
(g44
g2
Ntp637
Rp638
(dp639
g48
(lp640
g477
ag248
asbsg15
I00
sg34
g633
sbsS'vectMon'
p641
g0
(g39
g2
Ntp642
Rp643
(dp644
g14
I00
sg43
g0
(g44
g2
Ntp645
Rp646
(dp647
g48
(lp648
g267
ag291
ag326
ag353
asbsg15
I00
sg34
g641
sbsS'collisionEventSelectionAOD'
p649
g0
(g39
g2
Ntp650
Rp651
(dp652
g14
I00
sg43
g0
(g44
g2
Ntp653
Rp654
(dp655
g48
(lp656
g0
(g39
g2
Ntp657
Rp658
(dp659
g14
I00
sg43
g0
(g44
g2
Ntp660
Rp661
(dp662
g48
(lp663
g98
ag128
ag231
ag0
(g126
g2
Ntp664
Rp665
(dp666
g11
(lp667
g104
ag153
asg14
I00
sg15
I00
sg153
g0
(g154
g2
Ntp668
Rp669
(dp670
g14
I00
sg32
I01
sg64
I3
sg15
I00
sbsg104
g0
(g108
g2
Ntp671
Rp672
(dp673
g14
I00
sg32
I01
sg15
I00
sg112
g143
sg115
g78
sg114
g78
sbsg17
g116
sg16
I86
sg34
S'hfPosFilter3'
p674
sg35
g162
sbag504
asbsg15
I00
sg34
S'hfCoincFilter3'
p675
sbag0
(g126
g2
Ntp676
Rp677
(dp678
g11
(lp679
S'filter'
p680
ag104
aS'cut'
p681
asg14
I00
sg681
g0
(g74
g2
Ntp682
Rp683
(dp684
g14
I00
sg32
I01
sg64
S'!isFake && abs(z) <= 25 && position.Rho <= 2 && tracksSize >= 2'
p685
sg15
I00
sbsg15
I00
sg104
g0
(g108
g2
Ntp686
Rp687
(dp688
g14
I00
sg32
I01
sg15
I00
sg112
g594
sg114
g78
sg115
g78
sbsg17
S'/afs/cern.ch/work/q/qwang/cleanroomRun2/Ana/CMSSW_7_5_8_patch3/python/HeavyIonsAnalysis/Configuration/collisionEventSelection_cff.py'
p689
sg680
g0
(g60
g2
Ntp690
Rp691
(dp692
g14
I00
sg32
I01
sg64
I01
sg15
I00
sbsg16
I10
sg34
S'primaryVertexFilter'
p693
sg35
S'VertexSelector'
p694
sbag0
(g126
g2
Ntp695
Rp696
(dp697
g11
(lp698
S'maxZ'
p699
aS'clusterTrunc'
p700
aS'minZ'
p701
aS'cluscomSrc'
p702
aS'nhitsTrunc'
p703
aS'clusterPars'
p704
asg14
I00
sg699
g0
(g117
g2
Ntp705
Rp706
(dp707
g14
I00
sg32
I01
sg64
F20.05
sg15
I00
sbsg15
I01
sg16
I9
sg17
S'/afs/cern.ch/work/q/qwang/cleanroomRun2/Ana/CMSSW_7_5_8_patch3/python/HeavyIonsAnalysis/EventAnalysis/HIClusterCompatibilityFilter_cfi.py'
p708
sg700
g0
(g117
g2
Ntp709
Rp710
(dp711
g14
I00
sg32
I01
sg64
F2.0
sg15
I00
sbsg34
S'clusterCompatibilityFilter'
p712
sg701
g0
(g117
g2
Ntp713
Rp714
(dp715
g14
I00
sg32
I01
sg64
F-20.0
sg15
I00
sbsg702
g0
(g108
g2
Ntp716
Rp717
(dp718
g14
I00
sg32
I01
sg15
I00
sg112
S'hiClusterCompatibility'
p719
sg114
g78
sg115
g78
sbsg703
g0
(g66
g2
Ntp720
Rp721
(dp722
g14
I00
sg32
I01
sg64
I150
sg15
I00
sbsg704
g0
(cFWCore.ParameterSet.Types
vdouble
p723
g20
(lp724
F0.0
aF0.006
atp725
Rp726
(dp727
g14
I00
sg32
I01
sg15
I00
sbsg35
S'HIClusterCompatibilityFilter'
p728
sbasbsg15
I00
sg34
g649
sbsS'eventSelection'
p729
g0
(g39
g2
Ntp730
Rp731
(dp732
g14
I00
sg43
g0
(g44
g2
Ntp733
Rp734
(dp735
g48
(lp736
g658
ag677
ag696
asbsg15
I00
sg34
g729
sbsg148
g91
sS'collisionEventSelection'
p737
g0
(g39
g2
Ntp738
Rp739
(dp740
g14
I00
sg43
g0
(g44
g2
Ntp741
Rp742
(dp743
g48
(lp744
g658
ag677
ag0
(g50
g2
Ntp745
Rp746
(dp747
g11
(lp748
S'VerboseLevel'
p749
ag104
aS'CPE'
p750
asg14
I00
sg15
I00
sg104
g0
(g108
g2
Ntp751
Rp752
(dp753
g14
I00
sg32
I01
sg15
I00
sg112
S'siPixelClusters'
p754
sg114
g78
sg115
g78
sbsg17
S'/cvmfs/cms.cern.ch/slc6_amd64_gcc491/cms/cmssw-patch/CMSSW_7_5_8_patch3/python/RecoLocalTracker/SiPixelRecHits/SiPixelRecHits_cfi.py'
p755
sg750
g0
(g74
g2
Ntp756
Rp757
(dp758
g14
I00
sg32
I01
sg64
S'PixelCPEGeneric'
p759
sg15
I00
sbsg749
g0
(g66
g2
Ntp760
Rp761
(dp762
g14
I00
sg32
I00
sg64
I0
sg15
I00
sbsg16
I6
sg34
S'siPixelRecHits'
p763
sg35
S'SiPixelRecHitConverter'
p764
sbag0
(g126
g2
Ntp765
Rp766
(dp767
g11
(lp768
g699
aS'saveTags'
p769
aS'inputTag'
p770
ag700
aS'zStep'
p771
ag701
ag703
ag704
asg14
I00
sg699
g0
(g117
g2
Ntp772
Rp773
(dp774
g14
I00
sg32
I01
sg64
F20.05
sg15
I00
sbsg15
I01
sg769
g0
(g60
g2
Ntp775
Rp776
(dp777
g14
I00
sg32
I01
sg64
I00
sg15
I00
sbsg16
I14
sg700
g0
(g117
g2
Ntp778
Rp779
(dp780
g14
I00
sg32
I01
sg64
I2
sg15
I00
sbsg770
g0
(g108
g2
Ntp781
Rp782
(dp783
g14
I00
sg32
I01
sg15
I01
sg112
g763
sg114
g78
sg115
g78
sbsg771
g0
(g117
g2
Ntp784
Rp785
(dp786
g14
I00
sg32
I01
sg64
F0.2
sg15
I00
sbsg701
g0
(g117
g2
Ntp787
Rp788
(dp789
g14
I00
sg32
I01
sg64
I-20
sg15
I00
sbsg34
S'hltPixelClusterShapeFilter'
p790
sg17
S'/cvmfs/cms.cern.ch/slc6_amd64_gcc491/cms/cmssw-patch/CMSSW_7_5_8_patch3/cfipython/slc6_amd64_gcc491/HLTrigger/special/hltPixelClusterShapeFilter_cfi.py'
p791
sg703
g0
(g66
g2
Ntp792
Rp793
(dp794
g14
I00
sg32
I01
sg64
I150
sg15
I00
sbsg704
g0
(g723
g20
(lp795
I0
aF0.0045
atp796
Rp797
(dp798
g14
I00
sg32
I01
sg15
I00
sbsg35
S'HLTPixelClusterShapeFilter'
p799
sbasbsg15
I00
sg34
g737
sbsg483
g477
sS'pre_ana'
p800
g0
(g39
g2
Ntp801
Rp802
(dp803
g14
I00
sg43
g0
(g44
g2
Ntp804
Rp805
(dp806
g48
(lp807
g0
(g126
g2
Ntp808
Rp809
(dp810
g11
(lp811
S'eventSetupPathsKey'
p812
aS'andOr'
p813
aS'HLTPaths'
p814
aS'throw'
p815
aS'TriggerResultsTag'
p816
asg14
I00
sg814
g0
(g19
g20
(lp817
S'HLT_HIL1MinimumBiasHF2AND_*'
p818
aS'HLT_HIL1MinimumBiasHF1AND_*'
p819
atp820
Rp821
(dp822
g14
I00
sg32
I01
sg15
I01
sg33
I1
sbsg15
I01
sg16
I29
sg17
S'/afs/cern.ch/work/q/qwang/cleanroomRun2/Ana/CMSSW_7_5_8_patch3/src/QWAna/QWSC/run2/qw_PbPb15_HIMB2_pixel_v1.py'
p823
sg34
S'hltMB'
p824
sg812
g0
(g74
g2
Ntp825
Rp826
(dp827
g14
I00
sg32
I01
sg64
g78
sg15
I00
sbsg816
g0
(g108
g2
Ntp828
Rp829
(dp830
g14
I00
sg32
I01
sg15
I00
sg112
S'TriggerResults'
p831
sg115
g78
sg114
g192
sbsg815
g0
(g60
g2
Ntp832
Rp833
(dp834
g14
I00
sg32
I01
sg64
I00
sg15
I00
sbsg35
S'HLTHighLevel'
p835
sg813
g0
(g60
g2
Ntp836
Rp837
(dp838
g14
I00
sg32
I01
sg64
I01
sg15
I00
sbsbag731
ag516
asbsg15
I00
sg34
g800
sbsS'hfCoincFilter4'
p839
g0
(g39
g2
Ntp840
Rp841
(dp842
g14
I00
sg43
g0
(g44
g2
Ntp843
Rp844
(dp845
g48
(lp846
g98
ag128
ag231
ag0
(g126
g2
Ntp847
Rp848
(dp849
g11
(lp850
g104
ag153
asg14
I00
sg15
I00
sg153
g0
(g154
g2
Ntp851
Rp852
(dp853
g14
I00
sg32
I01
sg64
I4
sg15
I00
sbsg104
g0
(g108
g2
Ntp854
Rp855
(dp856
g14
I00
sg32
I01
sg15
I00
sg112
g143
sg115
g78
sg114
g78
sbsg17
g116
sg16
I106
sg34
S'hfPosFilter4'
p857
sg35
g162
sbag604
asbsg15
I00
sg34
g839
sbsS'hfCoincFilter5'
p858
g0
(g39
g2
Ntp859
Rp860
(dp861
g14
I00
sg43
g0
(g44
g2
Ntp862
Rp863
(dp864
g48
(lp865
g98
ag128
ag231
ag0
(g126
g2
Ntp866
Rp867
(dp868
g11
(lp869
g104
ag153
asg14
I00
sg15
I00
sg153
g0
(g154
g2
Ntp870
Rp871
(dp872
g14
I00
sg32
I01
sg64
I5
sg15
I00
sbsg104
g0
(g108
g2
Ntp873
Rp874
(dp875
g14
I00
sg32
I01
sg15
I00
sg112
g143
sg115
g78
sg114
g78
sbsg17
g116
sg16
I125
sg34
S'hfPosFilter5'
p876
sg35
g162
sbag623
asbsg15
I00
sg34
g858
sbsS'hfposFilter4'
p877
g0
(g39
g2
Ntp878
Rp879
(dp880
g14
I00
sg43
g0
(g44
g2
Ntp881
Rp882
(dp883
g48
(lp884
g91
ag848
asbsg15
I00
sg34
g877
sbsS'hfposFilter5'
p885
g0
(g39
g2
Ntp886
Rp887
(dp888
g14
I00
sg43
g0
(g44
g2
Ntp889
Rp890
(dp891
g48
(lp892
g91
ag867
asbsg15
I00
sg34
g885
sbsS'hfposFilter2'
p893
g0
(g39
g2
Ntp894
Rp895
(dp896
g14
I00
sg43
g0
(g44
g2
Ntp897
Rp898
(dp899
g48
(lp900
g91
ag0
(g126
g2
Ntp901
Rp902
(dp903
g11
(lp904
g104
ag153
asg14
I00
sg15
I00
sg153
g0
(g154
g2
Ntp905
Rp906
(dp907
g14
I00
sg32
I01
sg64
I2
sg15
I00
sbsg104
g0
(g108
g2
Ntp908
Rp909
(dp910
g14
I00
sg32
I01
sg15
I00
sg112
g143
sg115
g78
sg114
g78
sbsg17
g116
sg16
I67
sg34
S'hfPosFilter2'
p911
sg35
g162
sbasbsg15
I00
sg34
g893
sbsS'hfposFilter3'
p912
g0
(g39
g2
Ntp913
Rp914
(dp915
g14
I00
sg43
g0
(g44
g2
Ntp916
Rp917
(dp918
g48
(lp919
g91
ag665
asbsg15
I00
sg34
g912
sbsS'hfCoincFilter2'
p920
g0
(g39
g2
Ntp921
Rp922
(dp923
g14
I00
sg43
g0
(g44
g2
Ntp924
Rp925
(dp926
g48
(lp927
g98
ag128
ag231
ag902
ag485
asbsg15
I00
sg34
g920
sbsg675
g658
ssg406
g380
sg790
g766
sS'QWSC222_2'
p928
g0
(g171
g2
Ntp929
Rp930
(dp931
g11
(lp932
S'vertexZ'
p933
aS'trackPhi'
p934
aS'cmode'
p935
aS'maxeta'
p936
aS'mineta'
p937
aS'maxvz'
p938
aS'centrality'
p939
aS'minvz'
p940
aS'harmonics'
p941
aS'trackPt'
p942
aS'nvtx'
p943
aS'trackWeight'
p944
aS'trackEta'
p945
asg14
I00
sg933
g0
(g108
g2
Ntp946
Rp947
(dp948
g14
I00
sg32
I00
sg15
I00
sg112
g306
sg115
S'vz'
p949
sg114
g78
sbsg15
I00
sg934
g0
(g108
g2
Ntp950
Rp951
(dp952
g14
I00
sg32
I00
sg15
I00
sg112
g306
sg115
g307
sg114
g78
sbsg935
g0
(g66
g2
Ntp953
Rp954
(dp955
g14
I00
sg32
I00
sg64
I1
sg15
I00
sbsg936
g0
(g117
g2
Ntp956
Rp957
(dp958
g14
I00
sg32
I00
sg64
F2.4
sg15
I00
sbsg17
g823
sg937
g0
(g117
g2
Ntp959
Rp960
(dp961
g14
I00
sg32
I00
sg64
F-2.4
sg15
I00
sbsg938
g0
(g117
g2
Ntp962
Rp963
(dp964
g14
I00
sg32
I00
sg64
I15
sg15
I00
sbsg939
g0
(g108
g2
Ntp965
Rp966
(dp967
g14
I00
sg32
I00
sg15
I00
sg112
g282
sg115
g283
sg114
g78
sbsg940
g0
(g117
g2
Ntp968
Rp969
(dp970
g14
I00
sg32
I00
sg64
I-15
sg15
I00
sbsg16
I80
sg941
g0
(cFWCore.ParameterSet.Types
vint32
p971
g20
(lp972
I2
aI2
aI2
aI-2
atp973
Rp974
(dp975
g14
I00
sg32
I00
sg15
I00
sbsg942
g0
(g108
g2
Ntp976
Rp977
(dp978
g14
I00
sg32
I00
sg15
I00
sg112
g306
sg115
g335
sg114
g78
sbsg34
g928
sg943
g0
(g66
g2
Ntp979
Rp980
(dp981
g14
I00
sg32
I00
sg64
I100
sg15
I00
sbsg944
g0
(g108
g2
Ntp982
Rp983
(dp984
g14
I00
sg32
I00
sg15
I00
sg112
g306
sg115
g405
sg114
g78
sbsg35
S'QWSC'
p985
sg945
g0
(g108
g2
Ntp986
Rp987
(dp988
g14
I00
sg32
I00
sg15
I00
sg112
g306
sg115
g362
sg114
g78
sbsbsS'QWSC33333'
p989
g0
(g171
g2
Ntp990
Rp991
(dp992
g11
(lp993
g933
ag934
ag935
ag936
ag937
ag938
ag939
ag940
ag941
ag942
ag943
ag944
ag945
asg14
I00
sg933
g0
(g108
g2
Ntp994
Rp995
(dp996
g14
I00
sg32
I00
sg15
I00
sg112
g306
sg115
g949
sg114
g78
sbsg15
I00
sg934
g0
(g108
g2
Ntp997
Rp998
(dp999
g14
I00
sg32
I00
sg15
I00
sg112
g306
sg115
g307
sg114
g78
sbsg935
g0
(g66
g2
Ntp1000
Rp1001
(dp1002
g14
I00
sg32
I00
sg64
I1
sg15
I00
sbsg936
g0
(g117
g2
Ntp1003
Rp1004
(dp1005
g14
I00
sg32
I00
sg64
F2.4
sg15
I00
sbsg17
g823
sg937
g0
(g117
g2
Ntp1006
Rp1007
(dp1008
g14
I00
sg32
I00
sg64
F-2.4
sg15
I00
sbsg938
g0
(g117
g2
Ntp1009
Rp1010
(dp1011
g14
I00
sg32
I00
sg64
I15
sg15
I00
sbsg939
g0
(g108
g2
Ntp1012
Rp1013
(dp1014
g14
I00
sg32
I00
sg15
I00
sg112
g282
sg115
g283
sg114
g78
sbsg940
g0
(g117
g2
Ntp1015
Rp1016
(dp1017
g14
I00
sg32
I00
sg64
I-15
sg15
I00
sbsg16
I96
sg941
g0
(g971
g20
(lp1018
I3
aI3
aI3
aI3
aI3
atp1019
Rp1020
(dp1021
g14
I00
sg32
I00
sg15
I00
sbsg942
g0
(g108
g2
Ntp1022
Rp1023
(dp1024
g14
I00
sg32
I00
sg15
I00
sg112
g306
sg115
g335
sg114
g78
sbsg34
g989
sg943
g0
(g66
g2
Ntp1025
Rp1026
(dp1027
g14
I00
sg32
I00
sg64
I100
sg15
I00
sbsg944
g0
(g108
g2
Ntp1028
Rp1029
(dp1030
g14
I00
sg32
I00
sg15
I00
sg112
g306
sg115
g405
sg114
g78
sbsg35
g985
sg945
g0
(g108
g2
Ntp1031
Rp1032
(dp1033
g14
I00
sg32
I00
sg15
I00
sg112
g306
sg115
g362
sg114
g78
sbsbsS'EcalLaserCorrectionService'
p1034
g0
(g7
g2
Ntp1035
Rp1036
(dp1037
g11
(lp1038
sg14
I00
sg15
I00
sg16
I40
sg17
g18
sg34
g1034
sg35
g1034
sbsS'_Process__source'
p1039
g0
(cFWCore.ParameterSet.Modules
Source
p1040
g2
Ntp1041
Rp1042
(dp1043
g11
(lp1044
S'fileNames'
p1045
asg14
I00
sg15
I00
sg16
I175
sg17
g18
sg1045
g0
(g19
g20
(lp1046
S'file:/afs/cern.ch/user/q/qwang/work/cleanroomRun2/Ana/data/pixeltracking_1.root'
p1047
atp1048
Rp1049
(dp1050
g14
I00
sg32
I00
sg15
I00
sg33
I1
sbsg35
S'PoolSource'
p1051
sbsS'QWSC33333_3_3_3'
p1052
g0
(g171
g2
Ntp1053
Rp1054
(dp1055
g11
(lp1056
g933
ag934
ag935
ag936
ag937
ag938
ag939
ag940
ag941
ag942
ag943
ag944
ag945
asg14
I00
sg933
g0
(g108
g2
Ntp1057
Rp1058
(dp1059
g14
I00
sg32
I00
sg15
I00
sg112
g306
sg115
g949
sg114
g78
sbsg15
I00
sg934
g0
(g108
g2
Ntp1060
Rp1061
(dp1062
g14
I00
sg32
I00
sg15
I00
sg112
g306
sg115
g307
sg114
g78
sbsg935
g0
(g66
g2
Ntp1063
Rp1064
(dp1065
g14
I00
sg32
I00
sg64
I1
sg15
I00
sbsg936
g0
(g117
g2
Ntp1066
Rp1067
(dp1068
g14
I00
sg32
I00
sg64
F2.4
sg15
I00
sbsg17
g823
sg937
g0
(g117
g2
Ntp1069
Rp1070
(dp1071
g14
I00
sg32
I00
sg64
F-2.4
sg15
I00
sbsg938
g0
(g117
g2
Ntp1072
Rp1073
(dp1074
g14
I00
sg32
I00
sg64
I15
sg15
I00
sbsg939
g0
(g108
g2
Ntp1075
Rp1076
(dp1077
g14
I00
sg32
I00
sg15
I00
sg112
g282
sg115
g283
sg114
g78
sbsg940
g0
(g117
g2
Ntp1078
Rp1079
(dp1080
g14
I00
sg32
I00
sg64
I-15
sg15
I00
sbsg16
I146
sg941
g0
(g971
g20
(lp1081
I3
aI3
aI3
aI3
aI3
aI-3
aI-3
aI-3
atp1082
Rp1083
(dp1084
g14
I00
sg32
I00
sg15
I00
sbsg942
g0
(g108
g2
Ntp1085
Rp1086
(dp1087
g14
I00
sg32
I00
sg15
I00
sg112
g306
sg115
g335
sg114
g78
sbsg34
g1052
sg943
g0
(g66
g2
Ntp1088
Rp1089
(dp1090
g14
I00
sg32
I00
sg64
I100
sg15
I00
sbsg944
g0
(g108
g2
Ntp1091
Rp1092
(dp1093
g14
I00
sg32
I00
sg15
I00
sg112
g306
sg115
g405
sg114
g78
sbsg35
g985
sg945
g0
(g108
g2
Ntp1094
Rp1095
(dp1096
g14
I00
sg32
I00
sg15
I00
sg112
g306
sg115
g362
sg114
g78
sbsbsS'QWSC22222'
p1097
g0
(g171
g2
Ntp1098
Rp1099
(dp1100
g11
(lp1101
g933
ag934
ag935
ag936
ag937
ag938
ag939
ag940
ag941
ag942
ag943
ag944
ag945
asg14
I00
sg933
g0
(g108
g2
Ntp1102
Rp1103
(dp1104
g14
I00
sg32
I00
sg15
I00
sg112
g306
sg115
g949
sg114
g78
sbsg15
I00
sg934
g0
(g108
g2
Ntp1105
Rp1106
(dp1107
g14
I00
sg32
I00
sg15
I00
sg112
g306
sg115
g307
sg114
g78
sbsg935
g0
(g66
g2
Ntp1108
Rp1109
(dp1110
g14
I00
sg32
I00
sg64
I1
sg15
I00
sbsg936
g0
(g117
g2
Ntp1111
Rp1112
(dp1113
g14
I00
sg32
I00
sg64
F2.4
sg15
I00
sbsg17
g823
sg937
g0
(g117
g2
Ntp1114
Rp1115
(dp1116
g14
I00
sg32
I00
sg64
F-2.4
sg15
I00
sbsg938
g0
(g117
g2
Ntp1117
Rp1118
(dp1119
g14
I00
sg32
I00
sg64
I15
sg15
I00
sbsg939
g0
(g108
g2
Ntp1120
Rp1121
(dp1122
g14
I00
sg32
I00
sg15
I00
sg112
g282
sg115
g283
sg114
g78
sbsg940
g0
(g117
g2
Ntp1123
Rp1124
(dp1125
g14
I00
sg32
I00
sg64
I-15
sg15
I00
sbsg16
I92
sg941
g0
(g971
g20
(lp1126
I2
aI2
aI2
aI2
aI2
atp1127
Rp1128
(dp1129
g14
I00
sg32
I00
sg15
I00
sbsg942
g0
(g108
g2
Ntp1130
Rp1131
(dp1132
g14
I00
sg32
I00
sg15
I00
sg112
g306
sg115
g335
sg114
g78
sbsg34
g1097
sg943
g0
(g66
g2
Ntp1133
Rp1134
(dp1135
g14
I00
sg32
I00
sg64
I100
sg15
I00
sbsg944
g0
(g108
g2
Ntp1136
Rp1137
(dp1138
g14
I00
sg32
I00
sg15
I00
sg112
g306
sg115
g405
sg114
g78
sbsg35
g985
sg945
g0
(g108
g2
Ntp1139
Rp1140
(dp1141
g14
I00
sg32
I00
sg15
I00
sg112
g306
sg115
g362
sg114
g78
sbsbsg257
g248
sS'XMLFromDBSource'
p1142
g0
(g7
g2
Ntp1143
Rp1144
(dp1145
g11
(lp1146
S'rootDDName'
p1147
aS'label'
p1148
asg14
I00
sg15
I00
sg16
I40
sg17
g18
sg1147
g0
(g74
g2
Ntp1149
Rp1150
(dp1151
g14
I00
sg32
I01
sg64
S'cms:OCMS'
p1152
sg15
I00
sbsg1148
g0
(g74
g2
Ntp1153
Rp1154
(dp1155
g14
I00
sg32
I01
sg64
S'Extended'
p1156
sg15
I00
sbsg34
g1142
sg35
S'XMLIdealGeometryESProducer'
p1157
sbsS'QWSC2222'
p1158
g0
(g171
g2
Ntp1159
Rp1160
(dp1161
g11
(lp1162
g933
ag934
ag935
ag936
ag937
ag938
ag939
ag940
ag941
ag942
ag943
ag944
ag945
asg14
I00
sg933
g0
(g108
g2
Ntp1163
Rp1164
(dp1165
g14
I00
sg32
I00
sg15
I00
sg112
g306
sg115
g949
sg114
g78
sbsg15
I00
sg934
g0
(g108
g2
Ntp1166
Rp1167
(dp1168
g14
I00
sg32
I00
sg15
I00
sg112
g306
sg115
g307
sg114
g78
sbsg935
g0
(g66
g2
Ntp1169
Rp1170
(dp1171
g14
I00
sg32
I00
sg64
I1
sg15
I00
sbsg936
g0
(g117
g2
Ntp1172
Rp1173
(dp1174
g14
I00
sg32
I00
sg64
F2.4
sg15
I00
sbsg17
g823
sg937
g0
(g117
g2
Ntp1175
Rp1176
(dp1177
g14
I00
sg32
I00
sg64
F-2.4
sg15
I00
sbsg938
g0
(g117
g2
Ntp1178
Rp1179
(dp1180
g14
I00
sg32
I00
sg64
I15
sg15
I00
sbsg939
g0
(g108
g2
Ntp1181
Rp1182
(dp1183
g14
I00
sg32
I00
sg15
I00
sg112
g282
sg115
g283
sg114
g78
sbsg940
g0
(g117
g2
Ntp1184
Rp1185
(dp1186
g14
I00
sg32
I00
sg64
I-15
sg15
I00
sbsg16
I79
sg941
g0
(g971
g20
(lp1187
I2
aI2
aI2
aI2
atp1188
Rp1189
(dp1190
g14
I00
sg32
I00
sg15
I00
sbsg942
g0
(g108
g2
Ntp1191
Rp1192
(dp1193
g14
I00
sg32
I00
sg15
I00
sg112
g306
sg115
g335
sg114
g78
sbsg34
g1158
sg943
g0
(g66
g2
Ntp1194
Rp1195
(dp1196
g14
I00
sg32
I00
sg64
I100
sg15
I00
sbsg944
g0
(g108
g2
Ntp1197
Rp1198
(dp1199
g14
I00
sg32
I00
sg15
I00
sg112
g306
sg115
g405
sg114
g78
sbsg35
g985
sg945
g0
(g108
g2
Ntp1200
Rp1201
(dp1202
g14
I00
sg32
I00
sg15
I00
sg112
g306
sg115
g362
sg114
g78
sbsbsS'QWSC444_4_4'
p1203
g0
(g171
g2
Ntp1204
Rp1205
(dp1206
g11
(lp1207
g933
ag934
ag935
ag936
ag937
ag938
ag939
ag940
ag941
ag942
ag943
ag944
ag945
asg14
I00
sg933
g0
(g108
g2
Ntp1208
Rp1209
(dp1210
g14
I00
sg32
I00
sg15
I00
sg112
g306
sg115
g949
sg114
g78
sbsg15
I00
sg934
g0
(g108
g2
Ntp1211
Rp1212
(dp1213
g14
I00
sg32
I00
sg15
I00
sg112
g306
sg115
g307
sg114
g78
sbsg935
g0
(g66
g2
Ntp1214
Rp1215
(dp1216
g14
I00
sg32
I00
sg64
I1
sg15
I00
sbsg936
g0
(g117
g2
Ntp1217
Rp1218
(dp1219
g14
I00
sg32
I00
sg64
F2.4
sg15
I00
sbsg17
g823
sg937
g0
(g117
g2
Ntp1220
Rp1221
(dp1222
g14
I00
sg32
I00
sg64
F-2.4
sg15
I00
sbsg938
g0
(g117
g2
Ntp1223
Rp1224
(dp1225
g14
I00
sg32
I00
sg64
I15
sg15
I00
sbsg939
g0
(g108
g2
Ntp1226
Rp1227
(dp1228
g14
I00
sg32
I00
sg15
I00
sg112
g282
sg115
g283
sg114
g78
sbsg940
g0
(g117
g2
Ntp1229
Rp1230
(dp1231
g14
I00
sg32
I00
sg64
I-15
sg15
I00
sbsg16
I102
sg941
g0
(g971
g20
(lp1232
I4
aI4
aI4
aI-4
aI-4
atp1233
Rp1234
(dp1235
g14
I00
sg32
I00
sg15
I00
sbsg942
g0
(g108
g2
Ntp1236
Rp1237
(dp1238
g14
I00
sg32
I00
sg15
I00
sg112
g306
sg115
g335
sg114
g78
sbsg34
g1203
sg943
g0
(g66
g2
Ntp1239
Rp1240
(dp1241
g14
I00
sg32
I00
sg64
I100
sg15
I00
sbsg944
g0
(g108
g2
Ntp1242
Rp1243
(dp1244
g14
I00
sg32
I00
sg15
I00
sg112
g306
sg115
g405
sg114
g78
sbsg35
g985
sg945
g0
(g108
g2
Ntp1245
Rp1246
(dp1247
g14
I00
sg32
I00
sg15
I00
sg112
g306
sg115
g362
sg114
g78
sbsbsg163
g165
sS'TFileService'
p1248
g0
(cFWCore.ParameterSet.Modules
Service
p1249
g2
Ntp1250
Rp1251
(dp1252
g11
(lp1253
S'fileName'
p1254
asg14
I00
sg15
I00
sg16
I10
sg17
g18
sg1254
g0
(g74
g2
Ntp1255
Rp1256
(dp1257
g14
I00
sg32
I01
sg64
S'sc.root'
p1258
sg15
I00
sbsg35
g1248
sbsS'QWSC3333_3_3_3_3'
p1259
g0
(g171
g2
Ntp1260
Rp1261
(dp1262
g11
(lp1263
g933
ag934
ag935
ag936
ag937
ag938
ag939
ag940
ag941
ag942
ag943
ag944
ag945
asg14
I00
sg933
g0
(g108
g2
Ntp1264
Rp1265
(dp1266
g14
I00
sg32
I00
sg15
I00
sg112
g306
sg115
g949
sg114
g78
sbsg15
I00
sg934
g0
(g108
g2
Ntp1267
Rp1268
(dp1269
g14
I00
sg32
I00
sg15
I00
sg112
g306
sg115
g307
sg114
g78
sbsg935
g0
(g66
g2
Ntp1270
Rp1271
(dp1272
g14
I00
sg32
I00
sg64
I1
sg15
I00
sbsg936
g0
(g117
g2
Ntp1273
Rp1274
(dp1275
g14
I00
sg32
I00
sg64
F2.4
sg15
I00
sbsg17
g823
sg937
g0
(g117
g2
Ntp1276
Rp1277
(dp1278
g14
I00
sg32
I00
sg64
F-2.4
sg15
I00
sbsg938
g0
(g117
g2
Ntp1279
Rp1280
(dp1281
g14
I00
sg32
I00
sg64
I15
sg15
I00
sbsg939
g0
(g108
g2
Ntp1282
Rp1283
(dp1284
g14
I00
sg32
I00
sg15
I00
sg112
g282
sg115
g283
sg114
g78
sbsg940
g0
(g117
g2
Ntp1285
Rp1286
(dp1287
g14
I00
sg32
I00
sg64
I-15
sg15
I00
sbsg16
I147
sg941
g0
(g971
g20
(lp1288
I3
aI3
aI3
aI3
aI-3
aI-3
aI-3
aI-3
atp1289
Rp1290
(dp1291
g14
I00
sg32
I00
sg15
I00
sbsg942
g0
(g108
g2
Ntp1292
Rp1293
(dp1294
g14
I00
sg32
I00
sg15
I00
sg112
g306
sg115
g335
sg114
g78
sbsg34
g1259
sg943
g0
(g66
g2
Ntp1295
Rp1296
(dp1297
g14
I00
sg32
I00
sg64
I100
sg15
I00
sbsg944
g0
(g108
g2
Ntp1298
Rp1299
(dp1300
g14
I00
sg32
I00
sg15
I00
sg112
g306
sg115
g405
sg114
g78
sbsg35
g985
sg945
g0
(g108
g2
Ntp1301
Rp1302
(dp1303
g14
I00
sg32
I00
sg15
I00
sg112
g306
sg115
g362
sg114
g78
sbsbsS'QWSC2222_2'
p1304
g0
(g171
g2
Ntp1305
Rp1306
(dp1307
g11
(lp1308
g933
ag934
ag935
ag936
ag937
ag938
ag939
ag940
ag941
ag942
ag943
ag944
ag945
asg14
I00
sg933
g0
(g108
g2
Ntp1309
Rp1310
(dp1311
g14
I00
sg32
I00
sg15
I00
sg112
g306
sg115
g949
sg114
g78
sbsg15
I00
sg934
g0
(g108
g2
Ntp1312
Rp1313
(dp1314
g14
I00
sg32
I00
sg15
I00
sg112
g306
sg115
g307
sg114
g78
sbsg935
g0
(g66
g2
Ntp1315
Rp1316
(dp1317
g14
I00
sg32
I00
sg64
I1
sg15
I00
sbsg936
g0
(g117
g2
Ntp1318
Rp1319
(dp1320
g14
I00
sg32
I00
sg64
F2.4
sg15
I00
sbsg17
g823
sg937
g0
(g117
g2
Ntp1321
Rp1322
(dp1323
g14
I00
sg32
I00
sg64
F-2.4
sg15
I00
sbsg938
g0
(g117
g2
Ntp1324
Rp1325
(dp1326
g14
I00
sg32
I00
sg64
I15
sg15
I00
sbsg939
g0
(g108
g2
Ntp1327
Rp1328
(dp1329
g14
I00
sg32
I00
sg15
I00
sg112
g282
sg115
g283
sg114
g78
sbsg940
g0
(g117
g2
Ntp1330
Rp1331
(dp1332
g14
I00
sg32
I00
sg64
I-15
sg15
I00
sbsg16
I93
sg941
g0
(g971
g20
(lp1333
I2
aI2
aI2
aI2
aI-2
atp1334
Rp1335
(dp1336
g14
I00
sg32
I00
sg15
I00
sbsg942
g0
(g108
g2
Ntp1337
Rp1338
(dp1339
g14
I00
sg32
I00
sg15
I00
sg112
g306
sg115
g335
sg114
g78
sbsg34
g1304
sg943
g0
(g66
g2
Ntp1340
Rp1341
(dp1342
g14
I00
sg32
I00
sg64
I100
sg15
I00
sbsg944
g0
(g108
g2
Ntp1343
Rp1344
(dp1345
g14
I00
sg32
I00
sg15
I00
sg112
g306
sg115
g405
sg114
g78
sbsg35
g985
sg945
g0
(g108
g2
Ntp1346
Rp1347
(dp1348
g14
I00
sg32
I00
sg15
I00
sg112
g306
sg115
g362
sg114
g78
sbsbsS'source'
p1349
g1042
sS'QWSC22222_2_2_2'
p1350
g0
(g171
g2
Ntp1351
Rp1352
(dp1353
g11
(lp1354
g933
ag934
ag935
ag936
ag937
ag938
ag939
ag940
ag941
ag942
ag943
ag944
ag945
asg14
I00
sg933
g0
(g108
g2
Ntp1355
Rp1356
(dp1357
g14
I00
sg32
I00
sg15
I00
sg112
g306
sg115
g949
sg114
g78
sbsg15
I00
sg934
g0
(g108
g2
Ntp1358
Rp1359
(dp1360
g14
I00
sg32
I00
sg15
I00
sg112
g306
sg115
g307
sg114
g78
sbsg935
g0
(g66
g2
Ntp1361
Rp1362
(dp1363
g14
I00
sg32
I00
sg64
I1
sg15
I00
sbsg936
g0
(g117
g2
Ntp1364
Rp1365
(dp1366
g14
I00
sg32
I00
sg64
F2.4
sg15
I00
sbsg17
g823
sg937
g0
(g117
g2
Ntp1367
Rp1368
(dp1369
g14
I00
sg32
I00
sg64
F-2.4
sg15
I00
sbsg938
g0
(g117
g2
Ntp1370
Rp1371
(dp1372
g14
I00
sg32
I00
sg64
I15
sg15
I00
sbsg939
g0
(g108
g2
Ntp1373
Rp1374
(dp1375
g14
I00
sg32
I00
sg15
I00
sg112
g282
sg115
g283
sg114
g78
sbsg940
g0
(g117
g2
Ntp1376
Rp1377
(dp1378
g14
I00
sg32
I00
sg64
I-15
sg15
I00
sbsg16
I140
sg941
g0
(g971
g20
(lp1379
I2
aI2
aI2
aI2
aI2
aI-2
aI-2
aI-2
atp1380
Rp1381
(dp1382
g14
I00
sg32
I00
sg15
I00
sbsg942
g0
(g108
g2
Ntp1383
Rp1384
(dp1385
g14
I00
sg32
I00
sg15
I00
sg112
g306
sg115
g335
sg114
g78
sbsg34
g1350
sg943
g0
(g66
g2
Ntp1386
Rp1387
(dp1388
g14
I00
sg32
I00
sg64
I100
sg15
I00
sbsg944
g0
(g108
g2
Ntp1389
Rp1390
(dp1391
g14
I00
sg32
I00
sg15
I00
sg112
g306
sg115
g405
sg114
g78
sbsg35
g985
sg945
g0
(g108
g2
Ntp1392
Rp1393
(dp1394
g14
I00
sg32
I00
sg15
I00
sg112
g306
sg115
g362
sg114
g78
sbsbsS'RandomNumberGeneratorService'
p1395
g0
(g1249
g2
Ntp1396
Rp1397
(dp1398
g14
I00
sS'horeco'
p1399
g0
(cFWCore.ParameterSet.Types
PSet
p1400
g2
Ntp1401
Rp1402
(dp1403
g14
I00
sg32
I01
sg15
I00
sS'initialSeed'
p1404
g0
(g154
g2
Ntp1405
Rp1406
(dp1407
g14
I00
sg32
I00
sg64
I541321
sg15
I00
sbsg11
(lp1408
g1404
aS'engineName'
p1409
asg1409
g0
(g74
g2
Ntp1410
Rp1411
(dp1412
g14
I00
sg32
I00
sg64
S'TRandom3'
p1413
sg15
I00
sbsbsg16
I10
sS'paramMuons'
p1414
g0
(g1400
g2
Ntp1415
Rp1416
(dp1417
g14
I00
sg32
I01
sg15
I00
sg1404
g0
(g154
g2
Ntp1418
Rp1419
(dp1420
g14
I00
sg32
I00
sg64
I54525
sg15
I00
sbsg11
(lp1421
g1404
ag1409
asg1409
g0
(g74
g2
Ntp1422
Rp1423
(dp1424
g14
I00
sg32
I00
sg64
g1413
sg15
I00
sbsbsS'saveFileName'
p1425
g0
(g74
g2
Ntp1426
Rp1427
(dp1428
g14
I00
sg32
I00
sg64
g78
sg15
I00
sbsS'hbhereco'
p1429
g0
(g1400
g2
Ntp1430
Rp1431
(dp1432
g14
I00
sg32
I01
sg15
I00
sg1404
g0
(g154
g2
Ntp1433
Rp1434
(dp1435
g14
I00
sg32
I00
sg64
I541321
sg15
I00
sbsg11
(lp1436
g1404
ag1409
asg1409
g0
(g74
g2
Ntp1437
Rp1438
(dp1439
g14
I00
sg32
I00
sg64
g1413
sg15
I00
sbsbsS'simSiStripDigiSimLink'
p1440
g0
(g1400
g2
Ntp1441
Rp1442
(dp1443
g14
I00
sg32
I01
sg15
I00
sg1404
g0
(g154
g2
Ntp1444
Rp1445
(dp1446
g14
I00
sg32
I00
sg64
I1234567
sg15
I00
sbsg11
(lp1447
g1404
ag1409
asg1409
g0
(g74
g2
Ntp1448
Rp1449
(dp1450
g14
I00
sg32
I00
sg64
S'HepJamesRandom'
p1451
sg15
I00
sbsbsS'externalLHEProducer'
p1452
g0
(g1400
g2
Ntp1453
Rp1454
(dp1455
g14
I00
sg32
I01
sg15
I00
sg1404
g0
(g154
g2
Ntp1456
Rp1457
(dp1458
g14
I00
sg32
I00
sg64
I234567
sg15
I00
sbsg11
(lp1459
g1404
ag1409
asg1409
g0
(g74
g2
Ntp1460
Rp1461
(dp1462
g14
I00
sg32
I00
sg64
g1451
sg15
I00
sbsbsS'AftBurner'
p1463
g0
(g1400
g2
Ntp1464
Rp1465
(dp1466
g14
I00
sg32
I01
sg15
I00
sg1404
g0
(g154
g2
Ntp1467
Rp1468
(dp1469
g14
I00
sg32
I00
sg64
I7410904
sg15
I00
sbsg11
(lp1470
g1404
ag1409
asg1409
g0
(g74
g2
Ntp1471
Rp1472
(dp1473
g14
I00
sg32
I00
sg64
g1451
sg15
I00
sbsbsS'famosPileUp'
p1474
g0
(g1400
g2
Ntp1475
Rp1476
(dp1477
g14
I00
sg32
I01
sg15
I00
sg1404
g0
(g154
g2
Ntp1478
Rp1479
(dp1480
g14
I00
sg32
I00
sg64
I918273
sg15
I00
sbsg11
(lp1481
g1404
ag1409
asg1409
g0
(g74
g2
Ntp1482
Rp1483
(dp1484
g14
I00
sg32
I00
sg64
g1413
sg15
I00
sbsbsS'simMuonDTDigis'
p1485
g0
(g1400
g2
Ntp1486
Rp1487
(dp1488
g14
I00
sg32
I01
sg15
I00
sg1404
g0
(g154
g2
Ntp1489
Rp1490
(dp1491
g14
I00
sg32
I00
sg64
I1234567
sg15
I00
sbsg11
(lp1492
g1404
ag1409
asg1409
g0
(g74
g2
Ntp1493
Rp1494
(dp1495
g14
I00
sg32
I00
sg64
g1451
sg15
I00
sbsbsg35
g1395
sS'siTrackerGaussianSmearingRecHits'
p1496
g0
(g1400
g2
Ntp1497
Rp1498
(dp1499
g14
I00
sg32
I01
sg15
I00
sg1404
g0
(g154
g2
Ntp1500
Rp1501
(dp1502
g14
I00
sg32
I00
sg64
I24680
sg15
I00
sbsg11
(lp1503
g1404
ag1409
asg1409
g0
(g74
g2
Ntp1504
Rp1505
(dp1506
g14
I00
sg32
I00
sg64
g1413
sg15
I00
sbsbsg11
(lp1507
g1399
ag1414
ag1425
ag1429
ag1440
ag1452
ag1463
ag1474
ag1485
ag1496
aS'ecalPreshowerRecHit'
p1508
aS'generator'
p1509
aS'simMuonRPCDigis'
p1510
aS'hiSignal'
p1511
aS'mixSimCaloHits'
p1512
aS'mix'
p1513
aS'VtxSmeared'
p1514
aS'LHCTransport'
p1515
aS'ecalRecHit'
p1516
aS'hfreco'
p1517
aS'mixRecoTracks'
p1518
aS'hiSignalG4SimHits'
p1519
aS'famosSimHits'
p1520
aS'MuonSimHits'
p1521
aS'g4SimHits'
p1522
aS'hiSignalLHCTransport'
p1523
aS'mixGenPU'
p1524
aS'l1ParamMuons'
p1525
aS'simBeamSpotFilter'
p1526
aS'simMuonCSCDigis'
p1527
aS'mixData'
p1528
asg1508
g0
(g1400
g2
Ntp1529
Rp1530
(dp1531
g14
I00
sg32
I01
sg15
I00
sg1404
g0
(g154
g2
Ntp1532
Rp1533
(dp1534
g14
I00
sg32
I00
sg64
I6541321
sg15
I00
sbsg11
(lp1535
g1404
ag1409
asg1409
g0
(g74
g2
Ntp1536
Rp1537
(dp1538
g14
I00
sg32
I00
sg64
g1413
sg15
I00
sbsbsg1509
g0
(g1400
g2
Ntp1539
Rp1540
(dp1541
g14
I00
sg32
I01
sg15
I00
sg1404
g0
(g154
g2
Ntp1542
Rp1543
(dp1544
g14
I00
sg32
I00
sg64
I123456789
sg15
I00
sbsg11
(lp1545
g1404
ag1409
asg1409
g0
(g74
g2
Ntp1546
Rp1547
(dp1548
g14
I00
sg32
I00
sg64
g1451
sg15
I00
sbsbsg1510
g0
(g1400
g2
Ntp1549
Rp1550
(dp1551
g14
I00
sg32
I01
sg15
I00
sg1404
g0
(g154
g2
Ntp1552
Rp1553
(dp1554
g14
I00
sg32
I00
sg64
I1234567
sg15
I00
sbsg11
(lp1555
g1404
ag1409
asg1409
g0
(g74
g2
Ntp1556
Rp1557
(dp1558
g14
I00
sg32
I00
sg64
g1451
sg15
I00
sbsbsg1511
g0
(g1400
g2
Ntp1559
Rp1560
(dp1561
g14
I00
sg32
I01
sg15
I00
sg1404
g0
(g154
g2
Ntp1562
Rp1563
(dp1564
g14
I00
sg32
I00
sg64
I123456789
sg15
I00
sbsg11
(lp1565
g1404
ag1409
asg1409
g0
(g74
g2
Ntp1566
Rp1567
(dp1568
g14
I00
sg32
I00
sg64
g1451
sg15
I00
sbsbsg1512
g0
(g1400
g2
Ntp1569
Rp1570
(dp1571
g14
I00
sg32
I01
sg15
I00
sg1404
g0
(g154
g2
Ntp1572
Rp1573
(dp1574
g14
I00
sg32
I00
sg64
I918273
sg15
I00
sbsg11
(lp1575
g1404
ag1409
asg1409
g0
(g74
g2
Ntp1576
Rp1577
(dp1578
g14
I00
sg32
I00
sg64
g1413
sg15
I00
sbsbsg1513
g0
(g1400
g2
Ntp1579
Rp1580
(dp1581
g14
I00
sg32
I01
sg15
I00
sg1404
g0
(g154
g2
Ntp1582
Rp1583
(dp1584
g14
I00
sg32
I00
sg64
I12345
sg15
I00
sbsg11
(lp1585
g1404
ag1409
asg1409
g0
(g74
g2
Ntp1586
Rp1587
(dp1588
g14
I00
sg32
I00
sg64
g1451
sg15
I00
sbsbsg1514
g0
(g1400
g2
Ntp1589
Rp1590
(dp1591
g14
I00
sg32
I01
sg15
I00
sg1404
g0
(g154
g2
Ntp1592
Rp1593
(dp1594
g14
I00
sg32
I00
sg64
I98765432
sg15
I00
sbsg11
(lp1595
g1404
ag1409
asg1409
g0
(g74
g2
Ntp1596
Rp1597
(dp1598
g14
I00
sg32
I00
sg64
g1451
sg15
I00
sbsbsg1515
g0
(g1400
g2
Ntp1599
Rp1600
(dp1601
g14
I00
sg32
I01
sg15
I00
sg1404
g0
(g154
g2
Ntp1602
Rp1603
(dp1604
g14
I00
sg32
I00
sg64
I87654321
sg15
I00
sbsg11
(lp1605
g1404
ag1409
asg1409
g0
(g74
g2
Ntp1606
Rp1607
(dp1608
g14
I00
sg32
I00
sg64
g1413
sg15
I00
sbsbsg1516
g0
(g1400
g2
Ntp1609
Rp1610
(dp1611
g14
I00
sg32
I01
sg15
I00
sg1404
g0
(g154
g2
Ntp1612
Rp1613
(dp1614
g14
I00
sg32
I00
sg64
I654321
sg15
I00
sbsg11
(lp1615
g1404
ag1409
asg1409
g0
(g74
g2
Ntp1616
Rp1617
(dp1618
g14
I00
sg32
I00
sg64
g1413
sg15
I00
sbsbsg1528
g0
(g1400
g2
Ntp1619
Rp1620
(dp1621
g14
I00
sg32
I01
sg15
I00
sg1404
g0
(g154
g2
Ntp1622
Rp1623
(dp1624
g14
I00
sg32
I00
sg64
I12345
sg15
I00
sbsg11
(lp1625
g1404
ag1409
asg1409
g0
(g74
g2
Ntp1626
Rp1627
(dp1628
g14
I00
sg32
I00
sg64
g1451
sg15
I00
sbsbsg1518
g0
(g1400
g2
Ntp1629
Rp1630
(dp1631
g14
I00
sg32
I01
sg15
I00
sg1404
g0
(g154
g2
Ntp1632
Rp1633
(dp1634
g14
I00
sg32
I00
sg64
I918273
sg15
I00
sbsg11
(lp1635
g1404
ag1409
asg1409
g0
(g74
g2
Ntp1636
Rp1637
(dp1638
g14
I00
sg32
I00
sg64
g1413
sg15
I00
sbsbsg1519
g0
(g1400
g2
Ntp1639
Rp1640
(dp1641
g14
I00
sg32
I01
sg15
I00
sg1404
g0
(g154
g2
Ntp1642
Rp1643
(dp1644
g14
I00
sg32
I00
sg64
I11
sg15
I00
sbsg11
(lp1645
g1404
ag1409
asg1409
g0
(g74
g2
Ntp1646
Rp1647
(dp1648
g14
I00
sg32
I00
sg64
g1451
sg15
I00
sbsbsg1520
g0
(g1400
g2
Ntp1649
Rp1650
(dp1651
g14
I00
sg32
I01
sg15
I00
sg1404
g0
(g154
g2
Ntp1652
Rp1653
(dp1654
g14
I00
sg32
I00
sg64
I13579
sg15
I00
sbsg11
(lp1655
g1404
ag1409
asg1409
g0
(g74
g2
Ntp1656
Rp1657
(dp1658
g14
I00
sg32
I00
sg64
g1413
sg15
I00
sbsbsg1521
g0
(g1400
g2
Ntp1659
Rp1660
(dp1661
g14
I00
sg32
I01
sg15
I00
sg1404
g0
(g154
g2
Ntp1662
Rp1663
(dp1664
g14
I00
sg32
I00
sg64
I987346
sg15
I00
sbsg11
(lp1665
g1404
ag1409
asg1409
g0
(g74
g2
Ntp1666
Rp1667
(dp1668
g14
I00
sg32
I00
sg64
g1413
sg15
I00
sbsbsg1522
g0
(g1400
g2
Ntp1669
Rp1670
(dp1671
g14
I00
sg32
I01
sg15
I00
sg1404
g0
(g154
g2
Ntp1672
Rp1673
(dp1674
g14
I00
sg32
I00
sg64
I11
sg15
I00
sbsg11
(lp1675
g1404
ag1409
asg1409
g0
(g74
g2
Ntp1676
Rp1677
(dp1678
g14
I00
sg32
I00
sg64
g1451
sg15
I00
sbsbsg1523
g0
(g1400
g2
Ntp1679
Rp1680
(dp1681
g14
I00
sg32
I01
sg15
I00
sg1404
g0
(g154
g2
Ntp1682
Rp1683
(dp1684
g14
I00
sg32
I00
sg64
I88776655
sg15
I00
sbsg11
(lp1685
g1404
ag1409
asg1409
g0
(g74
g2
Ntp1686
Rp1687
(dp1688
g14
I00
sg32
I00
sg64
g1413
sg15
I00
sbsbsg1524
g0
(g1400
g2
Ntp1689
Rp1690
(dp1691
g14
I00
sg32
I01
sg15
I00
sg1404
g0
(g154
g2
Ntp1692
Rp1693
(dp1694
g14
I00
sg32
I00
sg64
I918273
sg15
I00
sbsg11
(lp1695
g1404
ag1409
asg1409
g0
(g74
g2
Ntp1696
Rp1697
(dp1698
g14
I00
sg32
I00
sg64
g1413
sg15
I00
sbsbsg1525
g0
(g1400
g2
Ntp1699
Rp1700
(dp1701
g14
I00
sg32
I01
sg15
I00
sg1404
g0
(g154
g2
Ntp1702
Rp1703
(dp1704
g14
I00
sg32
I00
sg64
I6453209
sg15
I00
sbsg11
(lp1705
g1404
ag1409
asg1409
g0
(g74
g2
Ntp1706
Rp1707
(dp1708
g14
I00
sg32
I00
sg64
g1413
sg15
I00
sbsbsg15
I00
sg1526
g0
(g1400
g2
Ntp1709
Rp1710
(dp1711
g14
I00
sg32
I01
sg15
I00
sg1404
g0
(g154
g2
Ntp1712
Rp1713
(dp1714
g14
I00
sg32
I00
sg64
I87654321
sg15
I00
sbsg11
(lp1715
g1404
ag1409
asg1409
g0
(g74
g2
Ntp1716
Rp1717
(dp1718
g14
I00
sg32
I00
sg64
g1451
sg15
I00
sbsbsg1527
g0
(g1400
g2
Ntp1719
Rp1720
(dp1721
g14
I00
sg32
I01
sg15
I00
sg1404
g0
(g154
g2
Ntp1722
Rp1723
(dp1724
g14
I00
sg32
I00
sg64
I11223344
sg15
I00
sbsg11
(lp1725
g1404
ag1409
asg1409
g0
(g74
g2
Ntp1726
Rp1727
(dp1728
g14
I00
sg32
I00
sg64
g1451
sg15
I00
sbsbsg1517
g0
(g1400
g2
Ntp1729
Rp1730
(dp1731
g14
I00
sg32
I01
sg15
I00
sg1404
g0
(g154
g2
Ntp1732
Rp1733
(dp1734
g14
I00
sg32
I00
sg64
I541321
sg15
I00
sbsg11
(lp1735
g1404
ag1409
asg1409
g0
(g74
g2
Ntp1736
Rp1737
(dp1738
g14
I00
sg32
I00
sg64
g1413
sg15
I00
sbsbsg17
g18
sbsS'QWSC22222_2_2'
p1739
g0
(g171
g2
Ntp1740
Rp1741
(dp1742
g11
(lp1743
g933
ag934
ag935
ag936
ag937
ag938
ag939
ag940
ag941
ag942
ag943
ag944
ag945
asg14
I00
sg933
g0
(g108
g2
Ntp1744
Rp1745
(dp1746
g14
I00
sg32
I00
sg15
I00
sg112
g306
sg115
g949
sg114
g78
sbsg15
I00
sg934
g0
(g108
g2
Ntp1747
Rp1748
(dp1749
g14
I00
sg32
I00
sg15
I00
sg112
g306
sg115
g307
sg114
g78
sbsg935
g0
(g66
g2
Ntp1750
Rp1751
(dp1752
g14
I00
sg32
I00
sg64
I1
sg15
I00
sbsg936
g0
(g117
g2
Ntp1753
Rp1754
(dp1755
g14
I00
sg32
I00
sg64
F2.4
sg15
I00
sbsg17
g823
sg937
g0
(g117
g2
Ntp1756
Rp1757
(dp1758
g14
I00
sg32
I00
sg64
F-2.4
sg15
I00
sbsg938
g0
(g117
g2
Ntp1759
Rp1760
(dp1761
g14
I00
sg32
I00
sg64
I15
sg15
I00
sbsg939
g0
(g108
g2
Ntp1762
Rp1763
(dp1764
g14
I00
sg32
I00
sg15
I00
sg112
g282
sg115
g283
sg114
g78
sbsg940
g0
(g117
g2
Ntp1765
Rp1766
(dp1767
g14
I00
sg32
I00
sg64
I-15
sg15
I00
sbsg16
I123
sg941
g0
(g971
g20
(lp1768
I2
aI2
aI2
aI2
aI2
aI-2
aI-2
atp1769
Rp1770
(dp1771
g14
I00
sg32
I00
sg15
I00
sbsg942
g0
(g108
g2
Ntp1772
Rp1773
(dp1774
g14
I00
sg32
I00
sg15
I00
sg112
g306
sg115
g335
sg114
g78
sbsg34
g1739
sg943
g0
(g66
g2
Ntp1775
Rp1776
(dp1777
g14
I00
sg32
I00
sg64
I100
sg15
I00
sbsg944
g0
(g108
g2
Ntp1778
Rp1779
(dp1780
g14
I00
sg32
I00
sg15
I00
sg112
g306
sg115
g405
sg114
g78
sbsg35
g985
sg945
g0
(g108
g2
Ntp1781
Rp1782
(dp1783
g14
I00
sg32
I00
sg15
I00
sg112
g306
sg115
g362
sg114
g78
sbsbsS'QWSC3333_3_3_3'
p1784
g0
(g171
g2
Ntp1785
Rp1786
(dp1787
g11
(lp1788
g933
ag934
ag935
ag936
ag937
ag938
ag939
ag940
ag941
ag942
ag943
ag944
ag945
asg14
I00
sg933
g0
(g108
g2
Ntp1789
Rp1790
(dp1791
g14
I00
sg32
I00
sg15
I00
sg112
g306
sg115
g949
sg114
g78
sbsg15
I00
sg934
g0
(g108
g2
Ntp1792
Rp1793
(dp1794
g14
I00
sg32
I00
sg15
I00
sg112
g306
sg115
g307
sg114
g78
sbsg935
g0
(g66
g2
Ntp1795
Rp1796
(dp1797
g14
I00
sg32
I00
sg64
I1
sg15
I00
sbsg936
g0
(g117
g2
Ntp1798
Rp1799
(dp1800
g14
I00
sg32
I00
sg64
F2.4
sg15
I00
sbsg17
g823
sg937
g0
(g117
g2
Ntp1801
Rp1802
(dp1803
g14
I00
sg32
I00
sg64
F-2.4
sg15
I00
sbsg938
g0
(g117
g2
Ntp1804
Rp1805
(dp1806
g14
I00
sg32
I00
sg64
I15
sg15
I00
sbsg939
g0
(g108
g2
Ntp1807
Rp1808
(dp1809
g14
I00
sg32
I00
sg15
I00
sg112
g282
sg115
g283
sg114
g78
sbsg940
g0
(g117
g2
Ntp1810
Rp1811
(dp1812
g14
I00
sg32
I00
sg64
I-15
sg15
I00
sbsg16
I129
sg941
g0
(g971
g20
(lp1813
I3
aI3
aI3
aI3
aI-3
aI-3
aI-3
atp1814
Rp1815
(dp1816
g14
I00
sg32
I00
sg15
I00
sbsg942
g0
(g108
g2
Ntp1817
Rp1818
(dp1819
g14
I00
sg32
I00
sg15
I00
sg112
g306
sg115
g335
sg114
g78
sbsg34
g1784
sg943
g0
(g66
g2
Ntp1820
Rp1821
(dp1822
g14
I00
sg32
I00
sg64
I100
sg15
I00
sbsg944
g0
(g108
g2
Ntp1823
Rp1824
(dp1825
g14
I00
sg32
I00
sg15
I00
sg112
g306
sg115
g405
sg114
g78
sbsg35
g985
sg945
g0
(g108
g2
Ntp1826
Rp1827
(dp1828
g14
I00
sg32
I00
sg15
I00
sg112
g306
sg115
g362
sg114
g78
sbsbsS'QWSC333_3'
p1829
g0
(g171
g2
Ntp1830
Rp1831
(dp1832
g11
(lp1833
g933
ag934
ag935
ag936
ag937
ag938
ag939
ag940
ag941
ag942
ag943
ag944
ag945
asg14
I00
sg933
g0
(g108
g2
Ntp1834
Rp1835
(dp1836
g14
I00
sg32
I00
sg15
I00
sg112
g306
sg115
g949
sg114
g78
sbsg15
I00
sg934
g0
(g108
g2
Ntp1837
Rp1838
(dp1839
g14
I00
sg32
I00
sg15
I00
sg112
g306
sg115
g307
sg114
g78
sbsg935
g0
(g66
g2
Ntp1840
Rp1841
(dp1842
g14
I00
sg32
I00
sg64
I1
sg15
I00
sbsg936
g0
(g117
g2
Ntp1843
Rp1844
(dp1845
g14
I00
sg32
I00
sg64
F2.4
sg15
I00
sbsg17
g823
sg937
g0
(g117
g2
Ntp1846
Rp1847
(dp1848
g14
I00
sg32
I00
sg64
F-2.4
sg15
I00
sbsg938
g0
(g117
g2
Ntp1849
Rp1850
(dp1851
g14
I00
sg32
I00
sg64
I15
sg15
I00
sbsg939
g0
(g108
g2
Ntp1852
Rp1853
(dp1854
g14
I00
sg32
I00
sg15
I00
sg112
g282
sg115
g283
sg114
g78
sbsg940
g0
(g117
g2
Ntp1855
Rp1856
(dp1857
g14
I00
sg32
I00
sg64
I-15
sg15
I00
sbsg16
I84
sg941
g0
(g971
g20
(lp1858
I3
aI3
aI3
aI-3
atp1859
Rp1860
(dp1861
g14
I00
sg32
I00
sg15
I00
sbsg942
g0
(g108
g2
Ntp1862
Rp1863
(dp1864
g14
I00
sg32
I00
sg15
I00
sg112
g306
sg115
g335
sg114
g78
sbsg34
g1829
sg943
g0
(g66
g2
Ntp1865
Rp1866
(dp1867
g14
I00
sg32
I00
sg64
I100
sg15
I00
sbsg944
g0
(g108
g2
Ntp1868
Rp1869
(dp1870
g14
I00
sg32
I00
sg15
I00
sg112
g306
sg115
g405
sg114
g78
sbsg35
g985
sg945
g0
(g108
g2
Ntp1871
Rp1872
(dp1873
g14
I00
sg32
I00
sg15
I00
sg112
g306
sg115
g362
sg114
g78
sbsbsS'QWSC2_2'
p1874
g0
(g171
g2
Ntp1875
Rp1876
(dp1877
g11
(lp1878
g933
ag934
ag935
ag936
ag937
ag938
ag939
ag940
ag941
ag942
ag943
ag944
ag945
asg14
I00
sg933
g0
(g108
g2
Ntp1879
Rp1880
(dp1881
g14
I00
sg32
I00
sg15
I00
sg112
g306
sg115
g949
sg114
g78
sbsg15
I00
sg934
g0
(g108
g2
Ntp1882
Rp1883
(dp1884
g14
I00
sg32
I00
sg15
I00
sg112
g306
sg115
g307
sg114
g78
sbsg935
g0
(g66
g2
Ntp1885
Rp1886
(dp1887
g14
I00
sg32
I00
sg64
I1
sg15
I00
sbsg936
g0
(g117
g2
Ntp1888
Rp1889
(dp1890
g14
I00
sg32
I00
sg64
F2.4
sg15
I00
sbsg17
g823
sg937
g0
(g117
g2
Ntp1891
Rp1892
(dp1893
g14
I00
sg32
I00
sg64
F-2.4
sg15
I00
sbsg938
g0
(g117
g2
Ntp1894
Rp1895
(dp1896
g14
I00
sg32
I00
sg64
I15
sg15
I00
sbsg939
g0
(g108
g2
Ntp1897
Rp1898
(dp1899
g14
I00
sg32
I00
sg15
I00
sg112
g282
sg115
g283
sg114
g78
sbsg940
g0
(g117
g2
Ntp1900
Rp1901
(dp1902
g14
I00
sg32
I00
sg64
I-15
sg15
I00
sbsg16
I60
sg941
g0
(g971
g20
(lp1903
I2
aI-2
atp1904
Rp1905
(dp1906
g14
I00
sg32
I00
sg15
I00
sbsg942
g0
(g108
g2
Ntp1907
Rp1908
(dp1909
g14
I00
sg32
I00
sg15
I00
sg112
g306
sg115
g335
sg114
g78
sbsg34
g1874
sg943
g0
(g66
g2
Ntp1910
Rp1911
(dp1912
g14
I00
sg32
I00
sg64
I100
sg15
I00
sbsg944
g0
(g108
g2
Ntp1913
Rp1914
(dp1915
g14
I00
sg32
I00
sg15
I00
sg112
g306
sg115
g405
sg114
g78
sbsg35
g985
sg945
g0
(g108
g2
Ntp1916
Rp1917
(dp1918
g14
I00
sg32
I00
sg15
I00
sg112
g306
sg115
g362
sg114
g78
sbsbsS'CaloTowerGeometryFromDBEP'
p1919
g0
(g7
g2
Ntp1920
Rp1921
(dp1922
g11
(lp1923
S'applyAlignment'
p1924
aS'hcalTopologyConstants'
p1925
asg14
I00
sg15
I01
sg16
I40
sg17
g18
sg1925
g0
(g1400
g2
Ntp1926
Rp1927
(dp1928
g14
I00
sg32
I01
sg15
I00
sS'maxDepthHE'
p1929
g0
(g66
g2
Ntp1930
Rp1931
(dp1932
g14
I00
sg32
I01
sg64
I3
sg15
I00
sbsS'maxDepthHB'
p1933
g0
(g66
g2
Ntp1934
Rp1935
(dp1936
g14
I00
sg32
I01
sg64
I2
sg15
I00
sbsg11
(lp1937
g1929
ag1933
aS'mode'
p1938
asg1938
g0
(g74
g2
Ntp1939
Rp1940
(dp1941
g14
I00
sg32
I01
sg64
S'HcalTopologyMode::LHC'
p1942
sg15
I00
sbsbsg34
g1919
sg1924
g0
(g60
g2
Ntp1943
Rp1944
(dp1945
g14
I00
sg32
I01
sg64
I00
sg15
I00
sbsg35
g1919
sbsS'HcalReLabel'
p1946
g0
(g1400
g2
Ntp1947
Rp1948
(dp1949
g14
I00
sg32
I01
sg15
I00
sS'RelabelRules'
p1950
g0
(g1400
g2
Ntp1951
Rp1952
(dp1953
g14
I00
sg32
I00
sg15
I00
sS'Eta16'
p1954
g0
(g971
g20
(lp1955
I1
aI1
aI2
aI2
aI2
aI2
aI2
aI2
aI2
aI3
aI3
aI3
aI3
aI3
aI3
aI3
aI3
aI3
aI3
atp1956
Rp1957
(dp1958
g14
I00
sg32
I00
sg15
I00
sbsS'Eta17'
p1959
g0
(g971
g20
(lp1960
I1
aI1
aI2
aI2
aI3
aI3
aI3
aI4
aI4
aI4
aI4
aI4
aI5
aI5
aI5
aI5
aI5
aI5
aI5
atp1961
Rp1962
(dp1963
g14
I00
sg32
I00
sg15
I00
sbsS'CorrectPhi'
p1964
g0
(g60
g2
Ntp1965
Rp1966
(dp1967
g14
I00
sg32
I00
sg64
I00
sg15
I00
sbsg11
(lp1968
g1954
ag1959
aS'Eta1'
p1969
ag1964
asg1969
g0
(g971
g20
(lp1970
I1
aI2
aI2
aI2
aI3
aI3
aI3
aI3
aI3
aI3
aI3
aI3
aI3
aI3
aI3
aI3
aI3
aI3
aI3
atp1971
Rp1972
(dp1973
g14
I00
sg32
I00
sg15
I00
sbsbsg11
(lp1974
g1950
aS'RelabelHits'
p1975
asg34
g1946
sg1975
g0
(g60
g2
Ntp1976
Rp1977
(dp1978
g14
I00
sg32
I00
sg64
I00
sg15
I00
sbsbsS'QWSC4'
p1979
g0
(g171
g2
Ntp1980
Rp1981
(dp1982
g11
(lp1983
g933
ag934
ag935
ag936
ag937
ag938
ag939
ag940
ag941
ag942
ag943
ag944
ag945
asg14
I00
sg933
g0
(g108
g2
Ntp1984
Rp1985
(dp1986
g14
I00
sg32
I00
sg15
I00
sg112
g306
sg115
g949
sg114
g78
sbsg15
I00
sg934
g0
(g108
g2
Ntp1987
Rp1988
(dp1989
g14
I00
sg32
I00
sg15
I00
sg112
g306
sg115
g307
sg114
g78
sbsg935
g0
(g66
g2
Ntp1990
Rp1991
(dp1992
g14
I00
sg32
I00
sg64
I1
sg15
I00
sbsg936
g0
(g117
g2
Ntp1993
Rp1994
(dp1995
g14
I00
sg32
I00
sg64
F2.4
sg15
I00
sbsg17
g823
sg937
g0
(g117
g2
Ntp1996
Rp1997
(dp1998
g14
I00
sg32
I00
sg64
F-2.4
sg15
I00
sbsg938
g0
(g117
g2
Ntp1999
Rp2000
(dp2001
g14
I00
sg32
I00
sg64
I15
sg15
I00
sbsg939
g0
(g108
g2
Ntp2002
Rp2003
(dp2004
g14
I00
sg32
I00
sg15
I00
sg112
g282
sg115
g283
sg114
g78
sbsg940
g0
(g117
g2
Ntp2005
Rp2006
(dp2007
g14
I00
sg32
I00
sg64
I-15
sg15
I00
sbsg16
I56
sg941
g0
(g971
g20
(lp2008
I4
atp2009
Rp2010
(dp2011
g14
I00
sg32
I00
sg15
I00
sbsg942
g0
(g108
g2
Ntp2012
Rp2013
(dp2014
g14
I00
sg32
I00
sg15
I00
sg112
g306
sg115
g335
sg114
g78
sbsg34
g1979
sg943
g0
(g66
g2
Ntp2015
Rp2016
(dp2017
g14
I00
sg32
I00
sg64
I100
sg15
I00
sbsg944
g0
(g108
g2
Ntp2018
Rp2019
(dp2020
g14
I00
sg32
I00
sg15
I00
sg112
g306
sg115
g405
sg114
g78
sbsg35
g985
sg945
g0
(g108
g2
Ntp2021
Rp2022
(dp2023
g14
I00
sg32
I00
sg15
I00
sg112
g306
sg115
g362
sg114
g78
sbsbsS'QWSC3'
p2024
g0
(g171
g2
Ntp2025
Rp2026
(dp2027
g11
(lp2028
g933
ag934
ag935
ag936
ag937
ag938
ag939
ag940
ag941
ag942
ag943
ag944
ag945
asg14
I00
sg933
g0
(g108
g2
Ntp2029
Rp2030
(dp2031
g14
I00
sg32
I00
sg15
I00
sg112
g306
sg115
g949
sg114
g78
sbsg15
I00
sg934
g0
(g108
g2
Ntp2032
Rp2033
(dp2034
g14
I00
sg32
I00
sg15
I00
sg112
g306
sg115
g307
sg114
g78
sbsg935
g0
(g66
g2
Ntp2035
Rp2036
(dp2037
g14
I00
sg32
I00
sg64
I1
sg15
I00
sbsg936
g0
(g117
g2
Ntp2038
Rp2039
(dp2040
g14
I00
sg32
I00
sg64
F2.4
sg15
I00
sbsg17
g823
sg937
g0
(g117
g2
Ntp2041
Rp2042
(dp2043
g14
I00
sg32
I00
sg64
F-2.4
sg15
I00
sbsg938
g0
(g117
g2
Ntp2044
Rp2045
(dp2046
g14
I00
sg32
I00
sg64
I15
sg15
I00
sbsg939
g0
(g108
g2
Ntp2047
Rp2048
(dp2049
g14
I00
sg32
I00
sg15
I00
sg112
g282
sg115
g283
sg114
g78
sbsg940
g0
(g117
g2
Ntp2050
Rp2051
(dp2052
g14
I00
sg32
I00
sg64
I-15
sg15
I00
sbsg16
I55
sg941
g0
(g971
g20
(lp2053
I3
atp2054
Rp2055
(dp2056
g14
I00
sg32
I00
sg15
I00
sbsg942
g0
(g108
g2
Ntp2057
Rp2058
(dp2059
g14
I00
sg32
I00
sg15
I00
sg112
g306
sg115
g335
sg114
g78
sbsg34
g2024
sg943
g0
(g66
g2
Ntp2060
Rp2061
(dp2062
g14
I00
sg32
I00
sg64
I100
sg15
I00
sbsg944
g0
(g108
g2
Ntp2063
Rp2064
(dp2065
g14
I00
sg32
I00
sg15
I00
sg112
g306
sg115
g405
sg114
g78
sbsg35
g985
sg945
g0
(g108
g2
Ntp2066
Rp2067
(dp2068
g14
I00
sg32
I00
sg15
I00
sg112
g306
sg115
g362
sg114
g78
sbsbsS'QWSC2'
p2069
g0
(g171
g2
Ntp2070
Rp2071
(dp2072
g11
(lp2073
g933
ag934
ag938
ag936
ag937
ag935
ag939
ag940
ag941
ag942
ag943
ag944
ag945
asg14
I00
sg933
g0
(g108
g2
Ntp2074
Rp2075
(dp2076
g14
I00
sg32
I00
sg15
I00
sg112
g306
sg114
g78
sg115
g949
sbsg15
I00
sg934
g0
(g108
g2
Ntp2077
Rp2078
(dp2079
g14
I00
sg32
I00
sg15
I00
sg112
g306
sg114
g78
sg115
g307
sbsg938
g0
(g117
g2
Ntp2080
Rp2081
(dp2082
g14
I00
sg32
I00
sg64
I15
sg15
I00
sbsg936
g0
(g117
g2
Ntp2083
Rp2084
(dp2085
g14
I00
sg32
I00
sg64
F2.4
sg15
I00
sbsg17
g823
sg937
g0
(g117
g2
Ntp2086
Rp2087
(dp2088
g14
I00
sg32
I00
sg64
F-2.4
sg15
I00
sbsg935
g0
(g66
g2
Ntp2089
Rp2090
(dp2091
g14
I00
sg32
I00
sg64
I1
sg15
I00
sbsg939
g0
(g108
g2
Ntp2092
Rp2093
(dp2094
g14
I00
sg32
I00
sg15
I00
sg112
g282
sg114
g78
sg115
g283
sbsg940
g0
(g117
g2
Ntp2095
Rp2096
(dp2097
g14
I00
sg32
I00
sg64
I-15
sg15
I00
sbsg16
I51
sg941
g0
(g971
g20
(lp2098
I2
atp2099
Rp2100
(dp2101
g14
I00
sg32
I00
sg15
I00
sbsg942
g0
(g108
g2
Ntp2102
Rp2103
(dp2104
g14
I00
sg32
I00
sg15
I00
sg112
g306
sg114
g78
sg115
g335
sbsg34
g2069
sg943
g0
(g66
g2
Ntp2105
Rp2106
(dp2107
g14
I00
sg32
I00
sg64
I100
sg15
I00
sbsg944
g0
(g108
g2
Ntp2108
Rp2109
(dp2110
g14
I00
sg32
I00
sg15
I00
sg112
g306
sg114
g78
sg115
g405
sbsg35
g985
sg945
g0
(g108
g2
Ntp2111
Rp2112
(dp2113
g14
I00
sg32
I00
sg15
I00
sg112
g306
sg114
g78
sg115
g362
sbsbsS'QWSC22222_2'
p2114
g0
(g171
g2
Ntp2115
Rp2116
(dp2117
g11
(lp2118
g933
ag934
ag935
ag936
ag937
ag938
ag939
ag940
ag941
ag942
ag943
ag944
ag945
asg14
I00
sg933
g0
(g108
g2
Ntp2119
Rp2120
(dp2121
g14
I00
sg32
I00
sg15
I00
sg112
g306
sg115
g949
sg114
g78
sbsg15
I00
sg934
g0
(g108
g2
Ntp2122
Rp2123
(dp2124
g14
I00
sg32
I00
sg15
I00
sg112
g306
sg115
g307
sg114
g78
sbsg935
g0
(g66
g2
Ntp2125
Rp2126
(dp2127
g14
I00
sg32
I00
sg64
I1
sg15
I00
sbsg936
g0
(g117
g2
Ntp2128
Rp2129
(dp2130
g14
I00
sg32
I00
sg64
F2.4
sg15
I00
sbsg17
g823
sg937
g0
(g117
g2
Ntp2131
Rp2132
(dp2133
g14
I00
sg32
I00
sg64
F-2.4
sg15
I00
sbsg938
g0
(g117
g2
Ntp2134
Rp2135
(dp2136
g14
I00
sg32
I00
sg64
I15
sg15
I00
sbsg939
g0
(g108
g2
Ntp2137
Rp2138
(dp2139
g14
I00
sg32
I00
sg15
I00
sg112
g282
sg115
g283
sg114
g78
sbsg940
g0
(g117
g2
Ntp2140
Rp2141
(dp2142
g14
I00
sg32
I00
sg64
I-15
sg15
I00
sbsg16
I106
sg941
g0
(g971
g20
(lp2143
I2
aI2
aI2
aI2
aI2
aI-2
atp2144
Rp2145
(dp2146
g14
I00
sg32
I00
sg15
I00
sbsg942
g0
(g108
g2
Ntp2147
Rp2148
(dp2149
g14
I00
sg32
I00
sg15
I00
sg112
g306
sg115
g335
sg114
g78
sbsg34
g2114
sg943
g0
(g66
g2
Ntp2150
Rp2151
(dp2152
g14
I00
sg32
I00
sg64
I100
sg15
I00
sbsg944
g0
(g108
g2
Ntp2153
Rp2154
(dp2155
g14
I00
sg32
I00
sg15
I00
sg112
g306
sg115
g405
sg114
g78
sbsg35
g985
sg945
g0
(g108
g2
Ntp2156
Rp2157
(dp2158
g14
I00
sg32
I00
sg15
I00
sg112
g306
sg115
g362
sg114
g78
sbsbsS'QWSC33_3'
p2159
g0
(g171
g2
Ntp2160
Rp2161
(dp2162
g11
(lp2163
g933
ag934
ag935
ag936
ag937
ag938
ag939
ag940
ag941
ag942
ag943
ag944
ag945
asg14
I00
sg933
g0
(g108
g2
Ntp2164
Rp2165
(dp2166
g14
I00
sg32
I00
sg15
I00
sg112
g306
sg115
g949
sg114
g78
sbsg15
I00
sg934
g0
(g108
g2
Ntp2167
Rp2168
(dp2169
g14
I00
sg32
I00
sg15
I00
sg112
g306
sg115
g307
sg114
g78
sbsg935
g0
(g66
g2
Ntp2170
Rp2171
(dp2172
g14
I00
sg32
I00
sg64
I1
sg15
I00
sbsg936
g0
(g117
g2
Ntp2173
Rp2174
(dp2175
g14
I00
sg32
I00
sg64
F2.4
sg15
I00
sbsg17
g823
sg937
g0
(g117
g2
Ntp2176
Rp2177
(dp2178
g14
I00
sg32
I00
sg64
F-2.4
sg15
I00
sbsg938
g0
(g117
g2
Ntp2179
Rp2180
(dp2181
g14
I00
sg32
I00
sg64
I15
sg15
I00
sbsg939
g0
(g108
g2
Ntp2182
Rp2183
(dp2184
g14
I00
sg32
I00
sg15
I00
sg112
g282
sg115
g283
sg114
g78
sbsg940
g0
(g117
g2
Ntp2185
Rp2186
(dp2187
g14
I00
sg32
I00
sg64
I-15
sg15
I00
sbsg16
I73
sg941
g0
(g971
g20
(lp2188
I3
aI3
aI-3
atp2189
Rp2190
(dp2191
g14
I00
sg32
I00
sg15
I00
sbsg942
g0
(g108
g2
Ntp2192
Rp2193
(dp2194
g14
I00
sg32
I00
sg15
I00
sg112
g306
sg115
g335
sg114
g78
sbsg34
g2159
sg943
g0
(g66
g2
Ntp2195
Rp2196
(dp2197
g14
I00
sg32
I00
sg64
I100
sg15
I00
sbsg944
g0
(g108
g2
Ntp2198
Rp2199
(dp2200
g14
I00
sg32
I00
sg15
I00
sg112
g306
sg115
g405
sg114
g78
sbsg35
g985
sg945
g0
(g108
g2
Ntp2201
Rp2202
(dp2203
g14
I00
sg32
I00
sg15
I00
sg112
g306
sg115
g362
sg114
g78
sbsbsg435
g411
sS'QWSC44'
p2204
g0
(g171
g2
Ntp2205
Rp2206
(dp2207
g11
(lp2208
g933
ag934
ag935
ag936
ag937
ag938
ag939
ag940
ag941
ag942
ag943
ag944
ag945
asg14
I00
sg933
g0
(g108
g2
Ntp2209
Rp2210
(dp2211
g14
I00
sg32
I00
sg15
I00
sg112
g306
sg115
g949
sg114
g78
sbsg15
I00
sg934
g0
(g108
g2
Ntp2212
Rp2213
(dp2214
g14
I00
sg32
I00
sg15
I00
sg112
g306
sg115
g307
sg114
g78
sbsg935
g0
(g66
g2
Ntp2215
Rp2216
(dp2217
g14
I00
sg32
I00
sg64
I1
sg15
I00
sbsg936
g0
(g117
g2
Ntp2218
Rp2219
(dp2220
g14
I00
sg32
I00
sg64
F2.4
sg15
I00
sbsg17
g823
sg937
g0
(g117
g2
Ntp2221
Rp2222
(dp2223
g14
I00
sg32
I00
sg64
F-2.4
sg15
I00
sbsg938
g0
(g117
g2
Ntp2224
Rp2225
(dp2226
g14
I00
sg32
I00
sg64
I15
sg15
I00
sbsg939
g0
(g108
g2
Ntp2227
Rp2228
(dp2229
g14
I00
sg32
I00
sg15
I00
sg112
g282
sg115
g283
sg114
g78
sbsg940
g0
(g117
g2
Ntp2230
Rp2231
(dp2232
g14
I00
sg32
I00
sg64
I-15
sg15
I00
sbsg16
I65
sg941
g0
(g971
g20
(lp2233
I4
aI4
atp2234
Rp2235
(dp2236
g14
I00
sg32
I00
sg15
I00
sbsg942
g0
(g108
g2
Ntp2237
Rp2238
(dp2239
g14
I00
sg32
I00
sg15
I00
sg112
g306
sg115
g335
sg114
g78
sbsg34
g2204
sg943
g0
(g66
g2
Ntp2240
Rp2241
(dp2242
g14
I00
sg32
I00
sg64
I100
sg15
I00
sbsg944
g0
(g108
g2
Ntp2243
Rp2244
(dp2245
g14
I00
sg32
I00
sg15
I00
sg112
g306
sg115
g405
sg114
g78
sbsg35
g985
sg945
g0
(g108
g2
Ntp2246
Rp2247
(dp2248
g14
I00
sg32
I00
sg15
I00
sg112
g306
sg115
g362
sg114
g78
sbsbsS'QWSC22_2'
p2249
g0
(g171
g2
Ntp2250
Rp2251
(dp2252
g11
(lp2253
g933
ag934
ag935
ag936
ag937
ag938
ag939
ag940
ag941
ag942
ag943
ag944
ag945
asg14
I00
sg933
g0
(g108
g2
Ntp2254
Rp2255
(dp2256
g14
I00
sg32
I00
sg15
I00
sg112
g306
sg115
g949
sg114
g78
sbsg15
I00
sg934
g0
(g108
g2
Ntp2257
Rp2258
(dp2259
g14
I00
sg32
I00
sg15
I00
sg112
g306
sg115
g307
sg114
g78
sbsg935
g0
(g66
g2
Ntp2260
Rp2261
(dp2262
g14
I00
sg32
I00
sg64
I1
sg15
I00
sbsg936
g0
(g117
g2
Ntp2263
Rp2264
(dp2265
g14
I00
sg32
I00
sg64
F2.4
sg15
I00
sbsg17
g823
sg937
g0
(g117
g2
Ntp2266
Rp2267
(dp2268
g14
I00
sg32
I00
sg64
F-2.4
sg15
I00
sbsg938
g0
(g117
g2
Ntp2269
Rp2270
(dp2271
g14
I00
sg32
I00
sg64
I15
sg15
I00
sbsg939
g0
(g108
g2
Ntp2272
Rp2273
(dp2274
g14
I00
sg32
I00
sg15
I00
sg112
g282
sg115
g283
sg114
g78
sbsg940
g0
(g117
g2
Ntp2275
Rp2276
(dp2277
g14
I00
sg32
I00
sg64
I-15
sg15
I00
sbsg16
I70
sg941
g0
(g971
g20
(lp2278
I2
aI2
aI-2
atp2279
Rp2280
(dp2281
g14
I00
sg32
I00
sg15
I00
sbsg942
g0
(g108
g2
Ntp2282
Rp2283
(dp2284
g14
I00
sg32
I00
sg15
I00
sg112
g306
sg115
g335
sg114
g78
sbsg34
g2249
sg943
g0
(g66
g2
Ntp2285
Rp2286
(dp2287
g14
I00
sg32
I00
sg64
I100
sg15
I00
sbsg944
g0
(g108
g2
Ntp2288
Rp2289
(dp2290
g14
I00
sg32
I00
sg15
I00
sg112
g306
sg115
g405
sg114
g78
sbsg35
g985
sg945
g0
(g108
g2
Ntp2291
Rp2292
(dp2293
g14
I00
sg32
I00
sg15
I00
sg112
g306
sg115
g362
sg114
g78
sbsbsS'_Process__InExtendCall'
p2294
I00
sS'_Process__producers'
p2295
(dp2296
g282
g523
sg306
g545
sS'randomEngineStateProducer'
p2297
g0
(g50
g2
Ntp2298
Rp2299
(dp2300
g11
(lp2301
sg14
I00
sg15
I00
sg16
I174
sg17
S'/afs/cern.ch/work/q/qwang/cleanroomRun2/Ana/CMSSW_7_5_8_patch3/python/IOMC/RandomEngine/IOMC_cff.py'
p2302
sg34
g2297
sg35
S'RandomEngineStateProducer'
p2303
sbsS'siPixelRecHitsPreSplitting'
p2304
g0
(g50
g2
Ntp2305
Rp2306
(dp2307
g11
(lp2308
g749
ag104
ag750
asg14
I00
sg15
I00
sg104
g0
(g108
g2
Ntp2309
Rp2310
(dp2311
g14
I00
sg32
I01
sg15
I01
sg112
S'siPixelClustersPreSplitting'
p2312
sg115
g78
sg114
g78
sbsg17
g755
sg750
g0
(g74
g2
Ntp2313
Rp2314
(dp2315
g14
I00
sg32
I01
sg64
g759
sg15
I00
sbsg749
g0
(g66
g2
Ntp2316
Rp2317
(dp2318
g14
I00
sg32
I00
sg64
I0
sg15
I00
sbsg16
I11
sg34
g2304
sg35
g764
sbsg73
g52
sg124
g98
sg763
g746
ssS'QWSC44444_4_4'
p2319
g0
(g171
g2
Ntp2320
Rp2321
(dp2322
g11
(lp2323
g933
ag934
ag935
ag936
ag937
ag938
ag939
ag940
ag941
ag942
ag943
ag944
ag945
asg14
I00
sg933
g0
(g108
g2
Ntp2324
Rp2325
(dp2326
g14
I00
sg32
I00
sg15
I00
sg112
g306
sg115
g949
sg114
g78
sbsg15
I00
sg934
g0
(g108
g2
Ntp2327
Rp2328
(dp2329
g14
I00
sg32
I00
sg15
I00
sg112
g306
sg115
g307
sg114
g78
sbsg935
g0
(g66
g2
Ntp2330
Rp2331
(dp2332
g14
I00
sg32
I00
sg64
I1
sg15
I00
sbsg936
g0
(g117
g2
Ntp2333
Rp2334
(dp2335
g14
I00
sg32
I00
sg64
F2.4
sg15
I00
sbsg17
g823
sg937
g0
(g117
g2
Ntp2336
Rp2337
(dp2338
g14
I00
sg32
I00
sg64
F-2.4
sg15
I00
sbsg938
g0
(g117
g2
Ntp2339
Rp2340
(dp2341
g14
I00
sg32
I00
sg64
I15
sg15
I00
sbsg939
g0
(g108
g2
Ntp2342
Rp2343
(dp2344
g14
I00
sg32
I00
sg15
I00
sg112
g282
sg115
g283
sg114
g78
sbsg940
g0
(g117
g2
Ntp2345
Rp2346
(dp2347
g14
I00
sg32
I00
sg64
I-15
sg15
I00
sbsg16
I133
sg941
g0
(g971
g20
(lp2348
I4
aI4
aI4
aI4
aI4
aI-4
aI-4
atp2349
Rp2350
(dp2351
g14
I00
sg32
I00
sg15
I00
sbsg942
g0
(g108
g2
Ntp2352
Rp2353
(dp2354
g14
I00
sg32
I00
sg15
I00
sg112
g306
sg115
g335
sg114
g78
sbsg34
g2319
sg943
g0
(g66
g2
Ntp2355
Rp2356
(dp2357
g14
I00
sg32
I00
sg64
I100
sg15
I00
sbsg944
g0
(g108
g2
Ntp2358
Rp2359
(dp2360
g14
I00
sg32
I00
sg15
I00
sg112
g306
sg115
g405
sg114
g78
sbsg35
g985
sg945
g0
(g108
g2
Ntp2361
Rp2362
(dp2363
g14
I00
sg32
I00
sg15
I00
sg112
g306
sg115
g362
sg114
g78
sbsbsS'siPixelQualityESProducer'
p2364
g0
(g7
g2
Ntp2365
Rp2366
(dp2367
g11
(lp2368
S'ListOfRecordToMerge'
p2369
asg14
I00
sg15
I01
sg16
I40
sg17
g18
sg2369
g0
(cFWCore.ParameterSet.Types
VPSet
p2370
g20
(lp2371
g0
(g1400
g2
Ntp2372
Rp2373
(dp2374
g14
I00
sg32
I01
sg15
I00
sS'record'
p2375
g0
(g74
g2
Ntp2376
Rp2377
(dp2378
g14
I00
sg32
I01
sg64
S'SiPixelQualityFromDbRcd'
p2379
sg15
I00
sbsS'tag'
p2380
g0
(g74
g2
Ntp2381
Rp2382
(dp2383
g14
I00
sg32
I01
sg64
g78
sg15
I00
sbsg11
(lp2384
g2375
ag2380
asbag0
(g1400
g2
Ntp2385
Rp2386
(dp2387
g14
I00
sg32
I01
sg15
I00
sg2375
g0
(g74
g2
Ntp2388
Rp2389
(dp2390
g14
I00
sg32
I01
sg64
S'SiPixelDetVOffRcd'
p2391
sg15
I00
sbsg2380
g0
(g74
g2
Ntp2392
Rp2393
(dp2394
g14
I00
sg32
I01
sg64
g78
sg15
I00
sbsg11
(lp2395
g2375
ag2380
asbatp2396
Rp2397
(dp2398
g14
I00
sg32
I01
sg15
I00
sg33
I1
sbsg34
g2364
sg35
S'SiPixelQualityESProducer'
p2399
sbsS'GlobalTag'
p2400
g0
(cFWCore.ParameterSet.Modules
ESSource
p2401
g2
Ntp2402
Rp2403
(dp2404
g11
(lp2405
S'DBParameters'
p2406
aS'toGet'
p2407
aS'connect'
p2408
aS'globaltag'
p2409
asg14
I00
sg15
I01
sg2409
g0
(g74
g2
Ntp2410
Rp2411
(dp2412
g14
I00
sg32
I01
sg64
S'75X_dataRun2_v13'
p2413
sg15
I00
sbsg16
I11
sg17
S'/afs/cern.ch/work/q/qwang/cleanroomRun2/Ana/CMSSW_7_5_8_patch3/python/Configuration/StandardSequences/FrontierConditions_GlobalTag_cfi.py'
p2414
sg2407
g0
(g2370
g20
(lp2415
tp2416
Rp2417
(dp2418
g14
I00
sg32
I01
sg15
I00
sg33
I1
sbsg2406
g0
(g1400
g2
Ntp2419
Rp2420
(dp2421
g14
I00
sg32
I01
sS'authenticationPath'
p2422
g0
(g74
g2
Ntp2423
Rp2424
(dp2425
g14
I00
sg32
I00
sg64
g78
sg15
I00
sbsS'connectionRetrialPeriod'
p2426
g0
(g66
g2
Ntp2427
Rp2428
(dp2429
g14
I00
sg32
I00
sg64
I10
sg15
I00
sbsg15
I00
sS'idleConnectionCleanupPeriod'
p2430
g0
(g66
g2
Ntp2431
Rp2432
(dp2433
g14
I00
sg32
I00
sg64
I10
sg15
I00
sbsS'messageLevel'
p2434
g0
(g66
g2
Ntp2435
Rp2436
(dp2437
g14
I00
sg32
I00
sg64
I0
sg15
I00
sbsS'enablePoolAutomaticCleanUp'
p2438
g0
(g60
g2
Ntp2439
Rp2440
(dp2441
g14
I00
sg32
I00
sg64
I00
sg15
I00
sbsS'enableConnectionSharing'
p2442
g0
(g60
g2
Ntp2443
Rp2444
(dp2445
g14
I00
sg32
I00
sg64
I01
sg15
I00
sbsS'enableReadOnlySessionOnUpdateConnection'
p2446
g0
(g60
g2
Ntp2447
Rp2448
(dp2449
g14
I00
sg32
I00
sg64
I00
sg15
I00
sbsg11
(lp2450
g2422
ag2446
ag2430
ag2434
ag2438
ag2442
aS'connectionRetrialTimeOut'
p2451
aS'connectionTimeOut'
p2452
aS'authenticationSystem'
p2453
ag2426
asg2452
g0
(g66
g2
Ntp2454
Rp2455
(dp2456
g14
I00
sg32
I00
sg64
I60
sg15
I00
sbsg2453
g0
(g66
g2
Ntp2457
Rp2458
(dp2459
g14
I00
sg32
I00
sg64
I0
sg15
I00
sbsg2451
g0
(g66
g2
Ntp2460
Rp2461
(dp2462
g14
I00
sg32
I00
sg64
I60
sg15
I00
sbsbsg2408
g0
(g74
g2
Ntp2463
Rp2464
(dp2465
g14
I00
sg32
I01
sg64
S'frontier://FrontierProd/CMS_CONDITIONS'
p2466
sg15
I00
sbsg34
g2400
sg35
S'PoolDBESSource'
p2467
sbsg288
g267
sS'QWSC3333_3_3'
p2468
g0
(g171
g2
Ntp2469
Rp2470
(dp2471
g11
(lp2472
g933
ag934
ag935
ag936
ag937
ag938
ag939
ag940
ag941
ag942
ag943
ag944
ag945
asg14
I00
sg933
g0
(g108
g2
Ntp2473
Rp2474
(dp2475
g14
I00
sg32
I00
sg15
I00
sg112
g306
sg115
g949
sg114
g78
sbsg15
I00
sg934
g0
(g108
g2
Ntp2476
Rp2477
(dp2478
g14
I00
sg32
I00
sg15
I00
sg112
g306
sg115
g307
sg114
g78
sbsg935
g0
(g66
g2
Ntp2479
Rp2480
(dp2481
g14
I00
sg32
I00
sg64
I1
sg15
I00
sbsg936
g0
(g117
g2
Ntp2482
Rp2483
(dp2484
g14
I00
sg32
I00
sg64
F2.4
sg15
I00
sbsg17
g823
sg937
g0
(g117
g2
Ntp2485
Rp2486
(dp2487
g14
I00
sg32
I00
sg64
F-2.4
sg15
I00
sbsg938
g0
(g117
g2
Ntp2488
Rp2489
(dp2490
g14
I00
sg32
I00
sg64
I15
sg15
I00
sbsg939
g0
(g108
g2
Ntp2491
Rp2492
(dp2493
g14
I00
sg32
I00
sg15
I00
sg112
g282
sg115
g283
sg114
g78
sbsg940
g0
(g117
g2
Ntp2494
Rp2495
(dp2496
g14
I00
sg32
I00
sg64
I-15
sg15
I00
sbsg16
I112
sg941
g0
(g971
g20
(lp2497
I3
aI3
aI3
aI3
aI-3
aI-3
atp2498
Rp2499
(dp2500
g14
I00
sg32
I00
sg15
I00
sbsg942
g0
(g108
g2
Ntp2501
Rp2502
(dp2503
g14
I00
sg32
I00
sg15
I00
sg112
g306
sg115
g335
sg114
g78
sbsg34
g2468
sg943
g0
(g66
g2
Ntp2504
Rp2505
(dp2506
g14
I00
sg32
I00
sg64
I100
sg15
I00
sbsg944
g0
(g108
g2
Ntp2507
Rp2508
(dp2509
g14
I00
sg32
I00
sg15
I00
sg112
g306
sg115
g405
sg114
g78
sbsg35
g985
sg945
g0
(g108
g2
Ntp2510
Rp2511
(dp2512
g14
I00
sg32
I00
sg15
I00
sg112
g306
sg115
g362
sg114
g78
sbsbsg737
g739
sS'_Process__endpaths'
p2513
g0
(cFWCore.ParameterSet.DictTypes
SortedKeysDict
p2514
c__builtin__
dict
p2515
(dp2516
tp2517
Rp2518
(dp2519
S'list'
p2520
(lp2521
sbsg483
g477
sS'QWSC44444444'
p2522
g0
(g171
g2
Ntp2523
Rp2524
(dp2525
g11
(lp2526
g933
ag934
ag935
ag936
ag937
ag938
ag939
ag940
ag941
ag942
ag943
ag944
ag945
asg14
I00
sg933
g0
(g108
g2
Ntp2527
Rp2528
(dp2529
g14
I00
sg32
I00
sg15
I00
sg112
g306
sg115
g949
sg114
g78
sbsg15
I00
sg934
g0
(g108
g2
Ntp2530
Rp2531
(dp2532
g14
I00
sg32
I00
sg15
I00
sg112
g306
sg115
g307
sg114
g78
sbsg935
g0
(g66
g2
Ntp2533
Rp2534
(dp2535
g14
I00
sg32
I00
sg64
I1
sg15
I00
sbsg936
g0
(g117
g2
Ntp2536
Rp2537
(dp2538
g14
I00
sg32
I00
sg64
F2.4
sg15
I00
sbsg17
g823
sg937
g0
(g117
g2
Ntp2539
Rp2540
(dp2541
g14
I00
sg32
I00
sg64
F-2.4
sg15
I00
sbsg938
g0
(g117
g2
Ntp2542
Rp2543
(dp2544
g14
I00
sg32
I00
sg64
I15
sg15
I00
sbsg939
g0
(g108
g2
Ntp2545
Rp2546
(dp2547
g14
I00
sg32
I00
sg15
I00
sg112
g282
sg115
g283
sg114
g78
sbsg940
g0
(g117
g2
Ntp2548
Rp2549
(dp2550
g14
I00
sg32
I00
sg64
I-15
sg15
I00
sbsg16
I149
sg941
g0
(g971
g20
(lp2551
I4
aI4
aI4
aI4
aI4
aI4
aI4
aI4
atp2552
Rp2553
(dp2554
g14
I00
sg32
I00
sg15
I00
sbsg942
g0
(g108
g2
Ntp2555
Rp2556
(dp2557
g14
I00
sg32
I00
sg15
I00
sg112
g306
sg115
g335
sg114
g78
sbsg34
g2522
sg943
g0
(g66
g2
Ntp2558
Rp2559
(dp2560
g14
I00
sg32
I00
sg64
I100
sg15
I00
sbsg944
g0
(g108
g2
Ntp2561
Rp2562
(dp2563
g14
I00
sg32
I00
sg15
I00
sg112
g306
sg115
g405
sg114
g78
sbsg35
g985
sg945
g0
(g108
g2
Ntp2564
Rp2565
(dp2566
g14
I00
sg32
I00
sg15
I00
sg112
g306
sg115
g362
sg114
g78
sbsbsS'MuonDetLayerGeometryESProducer'
p2567
g0
(g7
g2
Ntp2568
Rp2569
(dp2570
g11
(lp2571
sg14
I00
sg15
I00
sg16
I40
sg17
g18
sg34
g2567
sg35
g2567
sbsS'EcalEndcapGeometryFromDBEP'
p2572
g0
(g7
g2
Ntp2573
Rp2574
(dp2575
g11
(lp2576
g1924
asg14
I00
sg15
I01
sg16
I40
sg17
g18
sg34
g2572
sg1924
g0
(g60
g2
Ntp2577
Rp2578
(dp2579
g14
I00
sg32
I01
sg64
I01
sg15
I01
sbsg35
g2572
sbsg214
g173
sS'QWSC33333_3_3'
p2580
g0
(g171
g2
Ntp2581
Rp2582
(dp2583
g11
(lp2584
g933
ag934
ag935
ag936
ag937
ag938
ag939
ag940
ag941
ag942
ag943
ag944
ag945
asg14
I00
sg933
g0
(g108
g2
Ntp2585
Rp2586
(dp2587
g14
I00
sg32
I00
sg15
I00
sg112
g306
sg115
g949
sg114
g78
sbsg15
I00
sg934
g0
(g108
g2
Ntp2588
Rp2589
(dp2590
g14
I00
sg32
I00
sg15
I00
sg112
g306
sg115
g307
sg114
g78
sbsg935
g0
(g66
g2
Ntp2591
Rp2592
(dp2593
g14
I00
sg32
I00
sg64
I1
sg15
I00
sbsg936
g0
(g117
g2
Ntp2594
Rp2595
(dp2596
g14
I00
sg32
I00
sg64
F2.4
sg15
I00
sbsg17
g823
sg937
g0
(g117
g2
Ntp2597
Rp2598
(dp2599
g14
I00
sg32
I00
sg64
F-2.4
sg15
I00
sbsg938
g0
(g117
g2
Ntp2600
Rp2601
(dp2602
g14
I00
sg32
I00
sg64
I15
sg15
I00
sbsg939
g0
(g108
g2
Ntp2603
Rp2604
(dp2605
g14
I00
sg32
I00
sg15
I00
sg112
g282
sg115
g283
sg114
g78
sbsg940
g0
(g117
g2
Ntp2606
Rp2607
(dp2608
g14
I00
sg32
I00
sg64
I-15
sg15
I00
sbsg16
I128
sg941
g0
(g971
g20
(lp2609
I3
aI3
aI3
aI3
aI3
aI-3
aI-3
atp2610
Rp2611
(dp2612
g14
I00
sg32
I00
sg15
I00
sbsg942
g0
(g108
g2
Ntp2613
Rp2614
(dp2615
g14
I00
sg32
I00
sg15
I00
sg112
g306
sg115
g335
sg114
g78
sbsg34
g2580
sg943
g0
(g66
g2
Ntp2616
Rp2617
(dp2618
g14
I00
sg32
I00
sg64
I100
sg15
I00
sbsg944
g0
(g108
g2
Ntp2619
Rp2620
(dp2621
g14
I00
sg32
I00
sg15
I00
sg112
g306
sg115
g405
sg114
g78
sbsg35
g985
sg945
g0
(g108
g2
Ntp2622
Rp2623
(dp2624
g14
I00
sg32
I00
sg15
I00
sg112
g306
sg115
g362
sg114
g78
sbsbsS'QWSC333333_3'
p2625
g0
(g171
g2
Ntp2626
Rp2627
(dp2628
g11
(lp2629
g933
ag934
ag935
ag936
ag937
ag938
ag939
ag940
ag941
ag942
ag943
ag944
ag945
asg14
I00
sg933
g0
(g108
g2
Ntp2630
Rp2631
(dp2632
g14
I00
sg32
I00
sg15
I00
sg112
g306
sg115
g949
sg114
g78
sbsg15
I00
sg934
g0
(g108
g2
Ntp2633
Rp2634
(dp2635
g14
I00
sg32
I00
sg15
I00
sg112
g306
sg115
g307
sg114
g78
sbsg935
g0
(g66
g2
Ntp2636
Rp2637
(dp2638
g14
I00
sg32
I00
sg64
I1
sg15
I00
sbsg936
g0
(g117
g2
Ntp2639
Rp2640
(dp2641
g14
I00
sg32
I00
sg64
F2.4
sg15
I00
sbsg17
g823
sg937
g0
(g117
g2
Ntp2642
Rp2643
(dp2644
g14
I00
sg32
I00
sg64
F-2.4
sg15
I00
sbsg938
g0
(g117
g2
Ntp2645
Rp2646
(dp2647
g14
I00
sg32
I00
sg64
I15
sg15
I00
sbsg939
g0
(g108
g2
Ntp2648
Rp2649
(dp2650
g14
I00
sg32
I00
sg15
I00
sg112
g282
sg115
g283
sg114
g78
sbsg940
g0
(g117
g2
Ntp2651
Rp2652
(dp2653
g14
I00
sg32
I00
sg64
I-15
sg15
I00
sbsg16
I127
sg941
g0
(g971
g20
(lp2654
I3
aI3
aI3
aI3
aI3
aI3
aI-3
atp2655
Rp2656
(dp2657
g14
I00
sg32
I00
sg15
I00
sbsg942
g0
(g108
g2
Ntp2658
Rp2659
(dp2660
g14
I00
sg32
I00
sg15
I00
sg112
g306
sg115
g335
sg114
g78
sbsg34
g2625
sg943
g0
(g66
g2
Ntp2661
Rp2662
(dp2663
g14
I00
sg32
I00
sg64
I100
sg15
I00
sbsg944
g0
(g108
g2
Ntp2664
Rp2665
(dp2666
g14
I00
sg32
I00
sg15
I00
sg112
g306
sg115
g405
sg114
g78
sbsg35
g985
sg945
g0
(g108
g2
Ntp2667
Rp2668
(dp2669
g14
I00
sg32
I00
sg15
I00
sg112
g306
sg115
g362
sg114
g78
sbsbsS'MessageLogger'
p2670
g0
(g1249
g2
Ntp2671
Rp2672
(dp2673
g14
I00
sS'suppressInfo'
p2674
g0
(g19
g20
(lp2675
tp2676
Rp2677
(dp2678
g14
I00
sg32
I00
sg15
I00
sg33
I1
sbsS'suppressDebug'
p2679
g0
(g19
g20
(lp2680
tp2681
Rp2682
(dp2683
g14
I00
sg32
I00
sg15
I00
sg33
I1
sbsS'cout'
p2684
g0
(g1400
g2
Ntp2685
Rp2686
(dp2687
g14
I00
sg32
I00
sS'placeholder'
p2688
g0
(g60
g2
Ntp2689
Rp2690
(dp2691
g14
I00
sg32
I00
sg64
I01
sg15
I00
sbsg15
I00
sg11
(lp2692
g2688
asbsg16
I10
sS'debugModules'
p2693
g0
(g19
g20
(lp2694
tp2695
Rp2696
(dp2697
g14
I00
sg32
I00
sg15
I00
sg33
I1
sbsg35
g2670
sS'fwkJobReports'
p2698
g0
(g19
g20
(lp2699
S'FrameworkJobReport'
p2700
atp2701
Rp2702
(dp2703
g14
I00
sg32
I00
sg15
I00
sg33
I1
sbsg11
(lp2704
g2674
aS'debugs'
p2705
ag2679
ag2684
aS'cerr_stats'
p2706
aS'warnings'
p2707
aS'default'
p2708
aS'statistics'
p2709
aS'cerr'
p2710
ag2700
aS'suppressWarning'
p2711
aS'errors'
p2712
aS'destinations'
p2713
ag2693
aS'infos'
p2714
aS'categories'
p2715
ag2698
asg2709
g0
(g19
g20
(lp2716
g2706
atp2717
Rp2718
(dp2719
g14
I00
sg32
I00
sg15
I00
sg33
I1
sbsg17
g18
sg2713
g0
(g19
g20
(lp2720
g2707
ag2712
ag2714
ag2705
ag2684
ag2710
atp2721
Rp2722
(dp2723
g14
I00
sg32
I00
sg15
I00
sg33
I1
sbsg2705
g0
(g1400
g2
Ntp2724
Rp2725
(dp2726
g14
I00
sg32
I00
sg2688
g0
(g60
g2
Ntp2727
Rp2728
(dp2729
g14
I00
sg32
I00
sg64
I01
sg15
I00
sbsg15
I00
sg11
(lp2730
g2688
asbsg2707
g0
(g1400
g2
Ntp2731
Rp2732
(dp2733
g14
I00
sg32
I00
sg2688
g0
(g60
g2
Ntp2734
Rp2735
(dp2736
g14
I00
sg32
I00
sg64
I01
sg15
I00
sbsg15
I00
sg11
(lp2737
g2688
asbsg2712
g0
(g1400
g2
Ntp2738
Rp2739
(dp2740
g14
I00
sg32
I00
sg2688
g0
(g60
g2
Ntp2741
Rp2742
(dp2743
g14
I00
sg32
I00
sg64
I01
sg15
I00
sbsg15
I00
sg11
(lp2744
g2688
asbsg2700
g0
(g1400
g2
Ntp2745
Rp2746
(dp2747
g14
I00
sg32
I00
sg15
I00
sg2708
g0
(g1400
g2
Ntp2748
Rp2749
(dp2750
g14
I00
sg32
I00
sS'limit'
p2751
g0
(g66
g2
Ntp2752
Rp2753
(dp2754
g14
I00
sg32
I00
sg64
I0
sg15
I00
sbsg15
I00
sg11
(lp2755
g2751
asbsS'FwkJob'
p2756
g0
(g1400
g2
Ntp2757
Rp2758
(dp2759
g14
I00
sg32
I00
sg15
I00
sg2751
g0
(g66
g2
Ntp2760
Rp2761
(dp2762
g14
I00
sg32
I00
sg64
I10000000
sg15
I00
sbsg11
(lp2763
S'optionalPSet'
p2764
ag2751
asg2764
g0
(g60
g2
Ntp2765
Rp2766
(dp2767
g14
I00
sg32
I00
sg64
I01
sg15
I00
sbsbsg11
(lp2768
g2708
ag2764
ag2756
asg2764
g0
(g60
g2
Ntp2769
Rp2770
(dp2771
g14
I00
sg32
I00
sg64
I01
sg15
I00
sbsbsg2711
g0
(g19
g20
(lp2772
tp2773
Rp2774
(dp2775
g14
I00
sg32
I00
sg15
I00
sg33
I1
sbsg2714
g0
(g1400
g2
Ntp2776
Rp2777
(dp2778
g14
I00
sg32
I00
sg15
I00
sS'Root_NoDictionary'
p2779
g0
(g1400
g2
Ntp2780
Rp2781
(dp2782
g14
I00
sg32
I00
sg15
I00
sg2751
g0
(g66
g2
Ntp2783
Rp2784
(dp2785
g14
I00
sg32
I00
sg64
I0
sg15
I00
sbsg11
(lp2786
g2764
ag2751
asg2764
g0
(g60
g2
Ntp2787
Rp2788
(dp2789
g14
I00
sg32
I00
sg64
I01
sg15
I00
sbsbsg11
(lp2790
g2764
ag2779
ag2688
asg2764
g0
(g60
g2
Ntp2791
Rp2792
(dp2793
g14
I00
sg32
I00
sg64
I01
sg15
I00
sbsg2688
g0
(g60
g2
Ntp2794
Rp2795
(dp2796
g14
I00
sg32
I00
sg64
I01
sg15
I00
sbsbsg2715
g0
(g19
g20
(lp2797
g2756
aS'FwkReport'
p2798
aS'FwkSummary'
p2799
ag2779
atp2800
Rp2801
(dp2802
g14
I00
sg32
I00
sg15
I00
sg33
I1
sbsg15
I00
sg2706
g0
(g1400
g2
Ntp2803
Rp2804
(dp2805
g14
I00
sg32
I00
sg15
I00
sg2764
g0
(g60
g2
Ntp2806
Rp2807
(dp2808
g14
I00
sg32
I00
sg64
I01
sg15
I00
sbsg11
(lp2809
S'threshold'
p2810
aS'output'
p2811
ag2764
asg2810
g0
(g74
g2
Ntp2812
Rp2813
(dp2814
g14
I00
sg32
I00
sg64
S'WARNING'
p2815
sg15
I00
sbsg2811
g0
(g74
g2
Ntp2816
Rp2817
(dp2818
g14
I00
sg32
I00
sg64
g2710
sg15
I00
sbsbsg2708
g0
(g1400
g2
Ntp2819
Rp2820
(dp2821
g14
I00
sg32
I00
sg15
I00
sg11
(lp2822
sbsg2710
g0
(g1400
g2
Ntp2823
Rp2824
(dp2825
g14
I00
sg32
I00
sS'noTimeStamps'
p2826
g0
(g60
g2
Ntp2827
Rp2828
(dp2829
g14
I00
sg32
I00
sg64
I00
sg15
I00
sbsg2798
g0
(g1400
g2
Ntp2830
Rp2831
(dp2832
g14
I00
sg32
I00
sg15
I01
sS'reportEvery'
p2833
g0
(g66
g2
Ntp2834
Rp2835
(dp2836
g14
I00
sg32
I00
sg64
I100
sg15
I01
sbsg2751
g0
(g66
g2
Ntp2837
Rp2838
(dp2839
g14
I00
sg32
I00
sg64
I10000000
sg15
I00
sbsg11
(lp2840
g2833
ag2764
ag2751
asg2764
g0
(g60
g2
Ntp2841
Rp2842
(dp2843
g14
I00
sg32
I00
sg64
I01
sg15
I00
sbsbsg15
I00
sg2708
g0
(g1400
g2
Ntp2844
Rp2845
(dp2846
g14
I00
sg32
I00
sg2751
g0
(g66
g2
Ntp2847
Rp2848
(dp2849
g14
I00
sg32
I00
sg64
I10000000
sg15
I00
sbsg15
I00
sg11
(lp2850
g2751
asbsg2779
g0
(g1400
g2
Ntp2851
Rp2852
(dp2853
g14
I00
sg32
I00
sg15
I00
sg2751
g0
(g66
g2
Ntp2854
Rp2855
(dp2856
g14
I00
sg32
I00
sg64
I0
sg15
I00
sbsg11
(lp2857
g2764
ag2751
asg2764
g0
(g60
g2
Ntp2858
Rp2859
(dp2860
g14
I00
sg32
I00
sg64
I01
sg15
I00
sbsbsS'INFO'
p2861
g0
(g1400
g2
Ntp2862
Rp2863
(dp2864
g14
I00
sg32
I00
sg2751
g0
(g66
g2
Ntp2865
Rp2866
(dp2867
g14
I00
sg32
I00
sg64
I0
sg15
I00
sbsg15
I00
sg11
(lp2868
g2751
asbsg2764
g0
(g60
g2
Ntp2869
Rp2870
(dp2871
g14
I00
sg32
I00
sg64
I01
sg15
I00
sbsg2756
g0
(g1400
g2
Ntp2872
Rp2873
(dp2874
g14
I00
sg32
I00
sg15
I00
sg2751
g0
(g66
g2
Ntp2875
Rp2876
(dp2877
g14
I00
sg32
I00
sg64
I0
sg15
I00
sbsg11
(lp2878
g2764
ag2751
asg2764
g0
(g60
g2
Ntp2879
Rp2880
(dp2881
g14
I00
sg32
I00
sg64
I01
sg15
I00
sbsbsg2799
g0
(g1400
g2
Ntp2882
Rp2883
(dp2884
g14
I00
sg32
I00
sg15
I00
sg2833
g0
(g66
g2
Ntp2885
Rp2886
(dp2887
g14
I00
sg32
I00
sg64
I1
sg15
I00
sbsg2751
g0
(g66
g2
Ntp2888
Rp2889
(dp2890
g14
I00
sg32
I00
sg64
I10000000
sg15
I00
sbsg11
(lp2891
g2833
ag2764
ag2751
asg2764
g0
(g60
g2
Ntp2892
Rp2893
(dp2894
g14
I00
sg32
I00
sg64
I01
sg15
I00
sbsbsg11
(lp2895
g2861
ag2826
ag2798
ag2708
ag2779
ag2810
ag2756
ag2799
ag2764
asg2810
g0
(g74
g2
Ntp2896
Rp2897
(dp2898
g14
I00
sg32
I00
sg64
g2861
sg15
I00
sbsbsbsS'QWSC444_4'
p2899
g0
(g171
g2
Ntp2900
Rp2901
(dp2902
g11
(lp2903
g933
ag934
ag935
ag936
ag937
ag938
ag939
ag940
ag941
ag942
ag943
ag944
ag945
asg14
I00
sg933
g0
(g108
g2
Ntp2904
Rp2905
(dp2906
g14
I00
sg32
I00
sg15
I00
sg112
g306
sg115
g949
sg114
g78
sbsg15
I00
sg934
g0
(g108
g2
Ntp2907
Rp2908
(dp2909
g14
I00
sg32
I00
sg15
I00
sg112
g306
sg115
g307
sg114
g78
sbsg935
g0
(g66
g2
Ntp2910
Rp2911
(dp2912
g14
I00
sg32
I00
sg64
I1
sg15
I00
sbsg936
g0
(g117
g2
Ntp2913
Rp2914
(dp2915
g14
I00
sg32
I00
sg64
F2.4
sg15
I00
sbsg17
g823
sg937
g0
(g117
g2
Ntp2916
Rp2917
(dp2918
g14
I00
sg32
I00
sg64
F-2.4
sg15
I00
sbsg938
g0
(g117
g2
Ntp2919
Rp2920
(dp2921
g14
I00
sg32
I00
sg64
I15
sg15
I00
sbsg939
g0
(g108
g2
Ntp2922
Rp2923
(dp2924
g14
I00
sg32
I00
sg15
I00
sg112
g282
sg115
g283
sg114
g78
sbsg940
g0
(g117
g2
Ntp2925
Rp2926
(dp2927
g14
I00
sg32
I00
sg64
I-15
sg15
I00
sbsg16
I88
sg941
g0
(g971
g20
(lp2928
I4
aI4
aI4
aI-4
atp2929
Rp2930
(dp2931
g14
I00
sg32
I00
sg15
I00
sbsg942
g0
(g108
g2
Ntp2932
Rp2933
(dp2934
g14
I00
sg32
I00
sg15
I00
sg112
g306
sg115
g335
sg114
g78
sbsg34
g2899
sg943
g0
(g66
g2
Ntp2935
Rp2936
(dp2937
g14
I00
sg32
I00
sg64
I100
sg15
I00
sbsg944
g0
(g108
g2
Ntp2938
Rp2939
(dp2940
g14
I00
sg32
I00
sg15
I00
sg112
g306
sg115
g405
sg114
g78
sbsg35
g985
sg945
g0
(g108
g2
Ntp2941
Rp2942
(dp2943
g14
I00
sg32
I00
sg15
I00
sg112
g306
sg115
g362
sg114
g78
sbsbsg348
g326
sg124
g98
sS'QWSC44444'
p2944
g0
(g171
g2
Ntp2945
Rp2946
(dp2947
g11
(lp2948
g933
ag934
ag935
ag936
ag937
ag938
ag939
ag940
ag941
ag942
ag943
ag944
ag945
asg14
I00
sg933
g0
(g108
g2
Ntp2949
Rp2950
(dp2951
g14
I00
sg32
I00
sg15
I00
sg112
g306
sg115
g949
sg114
g78
sbsg15
I00
sg934
g0
(g108
g2
Ntp2952
Rp2953
(dp2954
g14
I00
sg32
I00
sg15
I00
sg112
g306
sg115
g307
sg114
g78
sbsg935
g0
(g66
g2
Ntp2955
Rp2956
(dp2957
g14
I00
sg32
I00
sg64
I1
sg15
I00
sbsg936
g0
(g117
g2
Ntp2958
Rp2959
(dp2960
g14
I00
sg32
I00
sg64
F2.4
sg15
I00
sbsg17
g823
sg937
g0
(g117
g2
Ntp2961
Rp2962
(dp2963
g14
I00
sg32
I00
sg64
F-2.4
sg15
I00
sbsg938
g0
(g117
g2
Ntp2964
Rp2965
(dp2966
g14
I00
sg32
I00
sg64
I15
sg15
I00
sbsg939
g0
(g108
g2
Ntp2967
Rp2968
(dp2969
g14
I00
sg32
I00
sg15
I00
sg112
g282
sg115
g283
sg114
g78
sbsg940
g0
(g117
g2
Ntp2970
Rp2971
(dp2972
g14
I00
sg32
I00
sg64
I-15
sg15
I00
sbsg16
I100
sg941
g0
(g971
g20
(lp2973
I4
aI4
aI4
aI4
aI4
atp2974
Rp2975
(dp2976
g14
I00
sg32
I00
sg15
I00
sbsg942
g0
(g108
g2
Ntp2977
Rp2978
(dp2979
g14
I00
sg32
I00
sg15
I00
sg112
g306
sg115
g335
sg114
g78
sbsg34
g2944
sg943
g0
(g66
g2
Ntp2980
Rp2981
(dp2982
g14
I00
sg32
I00
sg64
I100
sg15
I00
sbsg944
g0
(g108
g2
Ntp2983
Rp2984
(dp2985
g14
I00
sg32
I00
sg15
I00
sg112
g306
sg115
g405
sg114
g78
sbsg35
g985
sg945
g0
(g108
g2
Ntp2986
Rp2987
(dp2988
g14
I00
sg32
I00
sg15
I00
sg112
g306
sg115
g362
sg114
g78
sbsbsS'_Process__services'
p2989
(dp2990
g2670
g2672
sS'DQMStore'
p2991
g0
(g1249
g2
Ntp2992
Rp2993
(dp2994
g11
(lp2995
sg14
I00
sg15
I00
sg16
I10
sg17
g18
sg35
g2991
sbsg1395
g1397
sg1248
g1251
ssg2991
g2993
sS'CastorGeometryFromDBEP'
p2996
g0
(g7
g2
Ntp2997
Rp2998
(dp2999
g11
(lp3000
g1924
asg14
I00
sg15
I00
sg16
I40
sg17
g18
sg34
g2996
sg1924
g0
(g60
g2
Ntp3001
Rp3002
(dp3003
g14
I00
sg32
I01
sg64
I00
sg15
I00
sbsg35
g2996
sbsS'noBSChalo'
p3004
g0
(g126
g2
Ntp3005
Rp3006
(dp3007
g11
(lp3008
S'L1SeedsLogicalExpression'
p3009
ag769
aS'L1MuonCollectionTag'
p3010
aS'L1UseL1TriggerObjectMaps'
p3011
aS'L1UseAliasesForSeeding'
p3012
aS'L1GtReadoutRecordTag'
p3013
aS'L1CollectionsTag'
p3014
aS'L1NrBxInEvent'
p3015
aS'L1GtObjectMapTag'
p3016
aS'L1TechTriggerSeeding'
p3017
asg14
I00
sg15
I00
sg769
g0
(g60
g2
Ntp3018
Rp3019
(dp3020
g14
I00
sg32
I01
sg64
I00
sg15
I00
sbsg3009
g0
(g74
g2
Ntp3021
Rp3022
(dp3023
g14
I00
sg32
I01
sg64
S'NOT (36 OR 37 OR 38 OR 39)'
p3024
sg15
I00
sbsg17
g689
sg3010
g0
(g108
g2
Ntp3025
Rp3026
(dp3027
g14
I00
sg32
I01
sg15
I00
sg112
S'l1extraParticles'
p3028
sg115
g78
sg114
g78
sbsg3011
g0
(g60
g2
Ntp3029
Rp3030
(dp3031
g14
I00
sg32
I01
sg64
I01
sg15
I00
sbsg3012
g0
(g60
g2
Ntp3032
Rp3033
(dp3034
g14
I00
sg32
I01
sg64
I01
sg15
I00
sbsg3013
g0
(g108
g2
Ntp3035
Rp3036
(dp3037
g14
I00
sg32
I01
sg15
I00
sg112
S'gtDigis'
p3038
sg115
g78
sg114
g78
sbsg16
I27
sg3014
g0
(g108
g2
Ntp3039
Rp3040
(dp3041
g14
I00
sg32
I01
sg15
I00
sg112
g3028
sg115
g78
sg114
g78
sbsg3015
g0
(g66
g2
Ntp3042
Rp3043
(dp3044
g14
I00
sg32
I01
sg64
I3
sg15
I00
sbsg34
g3004
sg3016
g0
(g108
g2
Ntp3045
Rp3046
(dp3047
g14
I00
sg32
I01
sg15
I00
sg112
S'l1GtObjectMap'
p3048
sg115
g78
sg114
g78
sbsg3017
g0
(g60
g2
Ntp3049
Rp3050
(dp3051
g14
I00
sg32
I01
sg64
I01
sg15
I00
sbsg35
S'HLTLevel1GTSeed'
p3052
sbsS'QWSC3333'
p3053
g0
(g171
g2
Ntp3054
Rp3055
(dp3056
g11
(lp3057
g933
ag934
ag935
ag936
ag937
ag938
ag939
ag940
ag941
ag942
ag943
ag944
ag945
asg14
I00
sg933
g0
(g108
g2
Ntp3058
Rp3059
(dp3060
g14
I00
sg32
I00
sg15
I00
sg112
g306
sg115
g949
sg114
g78
sbsg15
I00
sg934
g0
(g108
g2
Ntp3061
Rp3062
(dp3063
g14
I00
sg32
I00
sg15
I00
sg112
g306
sg115
g307
sg114
g78
sbsg935
g0
(g66
g2
Ntp3064
Rp3065
(dp3066
g14
I00
sg32
I00
sg64
I1
sg15
I00
sbsg936
g0
(g117
g2
Ntp3067
Rp3068
(dp3069
g14
I00
sg32
I00
sg64
F2.4
sg15
I00
sbsg17
g823
sg937
g0
(g117
g2
Ntp3070
Rp3071
(dp3072
g14
I00
sg32
I00
sg64
F-2.4
sg15
I00
sbsg938
g0
(g117
g2
Ntp3073
Rp3074
(dp3075
g14
I00
sg32
I00
sg64
I15
sg15
I00
sbsg939
g0
(g108
g2
Ntp3076
Rp3077
(dp3078
g14
I00
sg32
I00
sg15
I00
sg112
g282
sg115
g283
sg114
g78
sbsg940
g0
(g117
g2
Ntp3079
Rp3080
(dp3081
g14
I00
sg32
I00
sg64
I-15
sg15
I00
sbsg16
I83
sg941
g0
(g971
g20
(lp3082
I3
aI3
aI3
aI3
atp3083
Rp3084
(dp3085
g14
I00
sg32
I00
sg15
I00
sbsg942
g0
(g108
g2
Ntp3086
Rp3087
(dp3088
g14
I00
sg32
I00
sg15
I00
sg112
g306
sg115
g335
sg114
g78
sbsg34
g3053
sg943
g0
(g66
g2
Ntp3089
Rp3090
(dp3091
g14
I00
sg32
I00
sg64
I100
sg15
I00
sbsg944
g0
(g108
g2
Ntp3092
Rp3093
(dp3094
g14
I00
sg32
I00
sg15
I00
sg112
g306
sg115
g405
sg114
g78
sbsg35
g985
sg945
g0
(g108
g2
Ntp3095
Rp3096
(dp3097
g14
I00
sg32
I00
sg15
I00
sg112
g306
sg115
g362
sg114
g78
sbsbsg38
g41
sg82
g84
sS'QWSC444444_4_4'
p3098
g0
(g171
g2
Ntp3099
Rp3100
(dp3101
g11
(lp3102
g933
ag934
ag935
ag936
ag937
ag938
ag939
ag940
ag941
ag942
ag943
ag944
ag945
asg14
I00
sg933
g0
(g108
g2
Ntp3103
Rp3104
(dp3105
g14
I00
sg32
I00
sg15
I00
sg112
g306
sg115
g949
sg114
g78
sbsg15
I00
sg934
g0
(g108
g2
Ntp3106
Rp3107
(dp3108
g14
I00
sg32
I00
sg15
I00
sg112
g306
sg115
g307
sg114
g78
sbsg935
g0
(g66
g2
Ntp3109
Rp3110
(dp3111
g14
I00
sg32
I00
sg64
I1
sg15
I00
sbsg936
g0
(g117
g2
Ntp3112
Rp3113
(dp3114
g14
I00
sg32
I00
sg64
F2.4
sg15
I00
sbsg17
g823
sg937
g0
(g117
g2
Ntp3115
Rp3116
(dp3117
g14
I00
sg32
I00
sg64
F-2.4
sg15
I00
sbsg938
g0
(g117
g2
Ntp3118
Rp3119
(dp3120
g14
I00
sg32
I00
sg64
I15
sg15
I00
sbsg939
g0
(g108
g2
Ntp3121
Rp3122
(dp3123
g14
I00
sg32
I00
sg15
I00
sg112
g282
sg115
g283
sg114
g78
sbsg940
g0
(g117
g2
Ntp3124
Rp3125
(dp3126
g14
I00
sg32
I00
sg64
I-15
sg15
I00
sbsg16
I151
sg941
g0
(g971
g20
(lp3127
I4
aI4
aI4
aI4
aI4
aI4
aI-4
aI-4
atp3128
Rp3129
(dp3130
g14
I00
sg32
I00
sg15
I00
sbsg942
g0
(g108
g2
Ntp3131
Rp3132
(dp3133
g14
I00
sg32
I00
sg15
I00
sg112
g306
sg115
g335
sg114
g78
sbsg34
g3098
sg943
g0
(g66
g2
Ntp3134
Rp3135
(dp3136
g14
I00
sg32
I00
sg64
I100
sg15
I00
sbsg944
g0
(g108
g2
Ntp3137
Rp3138
(dp3139
g14
I00
sg32
I00
sg15
I00
sg112
g306
sg115
g405
sg114
g78
sbsg35
g985
sg945
g0
(g108
g2
Ntp3140
Rp3141
(dp3142
g14
I00
sg32
I00
sg15
I00
sg112
g306
sg115
g362
sg114
g78
sbsbsS'eegeom'
p3143
g0
(g2401
g2
Ntp3144
Rp3145
(dp3146
g11
(lp3147
S'iovIsRunNotTime'
p3148
aS'recordName'
p3149
aS'firstValid'
p3150
asg14
I00
sg15
I00
sg16
I6
sg3149
g0
(g74
g2
Ntp3151
Rp3152
(dp3153
g14
I00
sg32
I01
sg64
S'EcalMappingRcd'
p3154
sg15
I00
sbsg17
S'/cvmfs/cms.cern.ch/slc6_amd64_gcc491/cms/cmssw-patch/CMSSW_7_5_8_patch3/python/Geometry/EcalMapping/EcalMappingRecord_cfi.py'
p3155
sg3150
g0
(cFWCore.ParameterSet.Types
vuint32
p3156
g20
(lp3157
I1
atp3158
Rp3159
(dp3160
g14
I00
sg32
I01
sg15
I00
sbsg34
g3143
sg3148
g0
(g60
g2
Ntp3161
Rp3162
(dp3163
g14
I00
sg32
I01
sg64
I01
sg15
I00
sbsg35
S'EmptyESSource'
p3164
sbsg468
g470
sS'QWSC444'
p3165
g0
(g171
g2
Ntp3166
Rp3167
(dp3168
g11
(lp3169
g933
ag934
ag935
ag936
ag937
ag938
ag939
ag940
ag941
ag942
ag943
ag944
ag945
asg14
I00
sg933
g0
(g108
g2
Ntp3170
Rp3171
(dp3172
g14
I00
sg32
I00
sg15
I00
sg112
g306
sg115
g949
sg114
g78
sbsg15
I00
sg934
g0
(g108
g2
Ntp3173
Rp3174
(dp3175
g14
I00
sg32
I00
sg15
I00
sg112
g306
sg115
g307
sg114
g78
sbsg935
g0
(g66
g2
Ntp3176
Rp3177
(dp3178
g14
I00
sg32
I00
sg64
I1
sg15
I00
sbsg936
g0
(g117
g2
Ntp3179
Rp3180
(dp3181
g14
I00
sg32
I00
sg64
F2.4
sg15
I00
sbsg17
g823
sg937
g0
(g117
g2
Ntp3182
Rp3183
(dp3184
g14
I00
sg32
I00
sg64
F-2.4
sg15
I00
sbsg938
g0
(g117
g2
Ntp3185
Rp3186
(dp3187
g14
I00
sg32
I00
sg64
I15
sg15
I00
sbsg939
g0
(g108
g2
Ntp3188
Rp3189
(dp3190
g14
I00
sg32
I00
sg15
I00
sg112
g282
sg115
g283
sg114
g78
sbsg940
g0
(g117
g2
Ntp3191
Rp3192
(dp3193
g14
I00
sg32
I00
sg64
I-15
sg15
I00
sbsg16
I75
sg941
g0
(g971
g20
(lp3194
I4
aI4
aI4
atp3195
Rp3196
(dp3197
g14
I00
sg32
I00
sg15
I00
sbsg942
g0
(g108
g2
Ntp3198
Rp3199
(dp3200
g14
I00
sg32
I00
sg15
I00
sg112
g306
sg115
g335
sg114
g78
sbsg34
g3165
sg943
g0
(g66
g2
Ntp3201
Rp3202
(dp3203
g14
I00
sg32
I00
sg64
I100
sg15
I00
sbsg944
g0
(g108
g2
Ntp3204
Rp3205
(dp3206
g14
I00
sg32
I00
sg15
I00
sg112
g306
sg115
g405
sg114
g78
sbsg35
g985
sg945
g0
(g108
g2
Ntp3207
Rp3208
(dp3209
g14
I00
sg32
I00
sg15
I00
sg112
g306
sg115
g362
sg114
g78
sbsbsg595
g597
sg614
g616
sg800
g802
sS'QWSC44_4_4'
p3210
g0
(g171
g2
Ntp3211
Rp3212
(dp3213
g11
(lp3214
g933
ag934
ag935
ag936
ag937
ag938
ag939
ag940
ag941
ag942
ag943
ag944
ag945
asg14
I00
sg933
g0
(g108
g2
Ntp3215
Rp3216
(dp3217
g14
I00
sg32
I00
sg15
I00
sg112
g306
sg115
g949
sg114
g78
sbsg15
I00
sg934
g0
(g108
g2
Ntp3218
Rp3219
(dp3220
g14
I00
sg32
I00
sg15
I00
sg112
g306
sg115
g307
sg114
g78
sbsg935
g0
(g66
g2
Ntp3221
Rp3222
(dp3223
g14
I00
sg32
I00
sg64
I1
sg15
I00
sbsg936
g0
(g117
g2
Ntp3224
Rp3225
(dp3226
g14
I00
sg32
I00
sg64
F2.4
sg15
I00
sbsg17
g823
sg937
g0
(g117
g2
Ntp3227
Rp3228
(dp3229
g14
I00
sg32
I00
sg64
F-2.4
sg15
I00
sbsg938
g0
(g117
g2
Ntp3230
Rp3231
(dp3232
g14
I00
sg32
I00
sg64
I15
sg15
I00
sbsg939
g0
(g108
g2
Ntp3233
Rp3234
(dp3235
g14
I00
sg32
I00
sg15
I00
sg112
g282
sg115
g283
sg114
g78
sbsg940
g0
(g117
g2
Ntp3236
Rp3237
(dp3238
g14
I00
sg32
I00
sg64
I-15
sg15
I00
sbsg16
I89
sg941
g0
(g971
g20
(lp3239
I4
aI4
aI-4
aI-4
atp3240
Rp3241
(dp3242
g14
I00
sg32
I00
sg15
I00
sbsg942
g0
(g108
g2
Ntp3243
Rp3244
(dp3245
g14
I00
sg32
I00
sg15
I00
sg112
g306
sg115
g335
sg114
g78
sbsg34
g3210
sg943
g0
(g66
g2
Ntp3246
Rp3247
(dp3248
g14
I00
sg32
I00
sg64
I100
sg15
I00
sbsg944
g0
(g108
g2
Ntp3249
Rp3250
(dp3251
g14
I00
sg32
I00
sg15
I00
sg112
g306
sg115
g405
sg114
g78
sbsg35
g985
sg945
g0
(g108
g2
Ntp3252
Rp3253
(dp3254
g14
I00
sg32
I00
sg15
I00
sg112
g306
sg115
g362
sg114
g78
sbsbsS'_Process__vpsets'
p3255
(dp3256
sg633
g635
sS'QWSC2222222'
p3257
g0
(g171
g2
Ntp3258
Rp3259
(dp3260
g11
(lp3261
g933
ag934
ag935
ag936
ag937
ag938
ag939
ag940
ag941
ag942
ag943
ag944
ag945
asg14
I00
sg933
g0
(g108
g2
Ntp3262
Rp3263
(dp3264
g14
I00
sg32
I00
sg15
I00
sg112
g306
sg115
g949
sg114
g78
sbsg15
I00
sg934
g0
(g108
g2
Ntp3265
Rp3266
(dp3267
g14
I00
sg32
I00
sg15
I00
sg112
g306
sg115
g307
sg114
g78
sbsg935
g0
(g66
g2
Ntp3268
Rp3269
(dp3270
g14
I00
sg32
I00
sg64
I1
sg15
I00
sbsg936
g0
(g117
g2
Ntp3271
Rp3272
(dp3273
g14
I00
sg32
I00
sg64
F2.4
sg15
I00
sbsg17
g823
sg937
g0
(g117
g2
Ntp3274
Rp3275
(dp3276
g14
I00
sg32
I00
sg64
F-2.4
sg15
I00
sbsg938
g0
(g117
g2
Ntp3277
Rp3278
(dp3279
g14
I00
sg32
I00
sg64
I15
sg15
I00
sbsg939
g0
(g108
g2
Ntp3280
Rp3281
(dp3282
g14
I00
sg32
I00
sg15
I00
sg112
g282
sg115
g283
sg114
g78
sbsg940
g0
(g117
g2
Ntp3283
Rp3284
(dp3285
g14
I00
sg32
I00
sg64
I-15
sg15
I00
sbsg16
I121
sg941
g0
(g971
g20
(lp3286
I2
aI2
aI2
aI2
aI2
aI2
aI2
atp3287
Rp3288
(dp3289
g14
I00
sg32
I00
sg15
I00
sbsg942
g0
(g108
g2
Ntp3290
Rp3291
(dp3292
g14
I00
sg32
I00
sg15
I00
sg112
g306
sg115
g335
sg114
g78
sbsg34
g3257
sg943
g0
(g66
g2
Ntp3293
Rp3294
(dp3295
g14
I00
sg32
I00
sg64
I100
sg15
I00
sbsg944
g0
(g108
g2
Ntp3296
Rp3297
(dp3298
g14
I00
sg32
I00
sg15
I00
sg112
g306
sg115
g405
sg114
g78
sbsg35
g985
sg945
g0
(g108
g2
Ntp3299
Rp3300
(dp3301
g14
I00
sg32
I00
sg15
I00
sg112
g306
sg115
g362
sg114
g78
sbsbsS'EcalTrigTowerConstituentsMapBuilder'
p3302
g0
(g7
g2
Ntp3303
Rp3304
(dp3305
g11
(lp3306
S'MapFile'
p3307
asg14
I00
sg15
I00
sg3307
g0
(g74
g2
Ntp3308
Rp3309
(dp3310
g14
I00
sg32
I00
sg64
S'Geometry/EcalMapping/data/EndCap_TTMap.txt'
p3311
sg15
I00
sbsg17
g18
sg16
I40
sg34
g3302
sg35
g3302
sbsS'QWSC4444_4_4_4'
p3312
g0
(g171
g2
Ntp3313
Rp3314
(dp3315
g11
(lp3316
g933
ag934
ag935
ag936
ag937
ag938
ag939
ag940
ag941
ag942
ag943
ag944
ag945
asg14
I00
sg933
g0
(g108
g2
Ntp3317
Rp3318
(dp3319
g14
I00
sg32
I00
sg15
I00
sg112
g306
sg115
g949
sg114
g78
sbsg15
I00
sg934
g0
(g108
g2
Ntp3320
Rp3321
(dp3322
g14
I00
sg32
I00
sg15
I00
sg112
g306
sg115
g307
sg114
g78
sbsg935
g0
(g66
g2
Ntp3323
Rp3324
(dp3325
g14
I00
sg32
I00
sg64
I1
sg15
I00
sbsg936
g0
(g117
g2
Ntp3326
Rp3327
(dp3328
g14
I00
sg32
I00
sg64
F2.4
sg15
I00
sbsg17
g823
sg937
g0
(g117
g2
Ntp3329
Rp3330
(dp3331
g14
I00
sg32
I00
sg64
F-2.4
sg15
I00
sbsg938
g0
(g117
g2
Ntp3332
Rp3333
(dp3334
g14
I00
sg32
I00
sg64
I15
sg15
I00
sbsg939
g0
(g108
g2
Ntp3335
Rp3336
(dp3337
g14
I00
sg32
I00
sg15
I00
sg112
g282
sg115
g283
sg114
g78
sbsg940
g0
(g117
g2
Ntp3338
Rp3339
(dp3340
g14
I00
sg32
I00
sg64
I-15
sg15
I00
sbsg16
I134
sg941
g0
(g971
g20
(lp3341
I4
aI4
aI4
aI4
aI-4
aI-4
aI-4
atp3342
Rp3343
(dp3344
g14
I00
sg32
I00
sg15
I00
sbsg942
g0
(g108
g2
Ntp3345
Rp3346
(dp3347
g14
I00
sg32
I00
sg15
I00
sg112
g306
sg115
g335
sg114
g78
sbsg34
g3312
sg943
g0
(g66
g2
Ntp3348
Rp3349
(dp3350
g14
I00
sg32
I00
sg64
I100
sg15
I00
sbsg944
g0
(g108
g2
Ntp3351
Rp3352
(dp3353
g14
I00
sg32
I00
sg15
I00
sg112
g306
sg115
g405
sg114
g78
sbsg35
g985
sg945
g0
(g108
g2
Ntp3354
Rp3355
(dp3356
g14
I00
sg32
I00
sg15
I00
sg112
g306
sg115
g362
sg114
g78
sbsbsS'QWSC222222_2_2'
p3357
g0
(g171
g2
Ntp3358
Rp3359
(dp3360
g11
(lp3361
g933
ag934
ag935
ag936
ag937
ag938
ag939
ag940
ag941
ag942
ag943
ag944
ag945
asg14
I00
sg933
g0
(g108
g2
Ntp3362
Rp3363
(dp3364
g14
I00
sg32
I00
sg15
I00
sg112
g306
sg115
g949
sg114
g78
sbsg15
I00
sg934
g0
(g108
g2
Ntp3365
Rp3366
(dp3367
g14
I00
sg32
I00
sg15
I00
sg112
g306
sg115
g307
sg114
g78
sbsg935
g0
(g66
g2
Ntp3368
Rp3369
(dp3370
g14
I00
sg32
I00
sg64
I1
sg15
I00
sbsg936
g0
(g117
g2
Ntp3371
Rp3372
(dp3373
g14
I00
sg32
I00
sg64
F2.4
sg15
I00
sbsg17
g823
sg937
g0
(g117
g2
Ntp3374
Rp3375
(dp3376
g14
I00
sg32
I00
sg64
F-2.4
sg15
I00
sbsg938
g0
(g117
g2
Ntp3377
Rp3378
(dp3379
g14
I00
sg32
I00
sg64
I15
sg15
I00
sbsg939
g0
(g108
g2
Ntp3380
Rp3381
(dp3382
g14
I00
sg32
I00
sg15
I00
sg112
g282
sg115
g283
sg114
g78
sbsg940
g0
(g117
g2
Ntp3383
Rp3384
(dp3385
g14
I00
sg32
I00
sg64
I-15
sg15
I00
sbsg16
I139
sg941
g0
(g971
g20
(lp3386
I2
aI2
aI2
aI2
aI2
aI2
aI-2
aI-2
atp3387
Rp3388
(dp3389
g14
I00
sg32
I00
sg15
I00
sbsg942
g0
(g108
g2
Ntp3390
Rp3391
(dp3392
g14
I00
sg32
I00
sg15
I00
sg112
g306
sg115
g335
sg114
g78
sbsg34
g3357
sg943
g0
(g66
g2
Ntp3393
Rp3394
(dp3395
g14
I00
sg32
I00
sg64
I100
sg15
I00
sbsg944
g0
(g108
g2
Ntp3396
Rp3397
(dp3398
g14
I00
sg32
I00
sg15
I00
sg112
g306
sg115
g405
sg114
g78
sbsg35
g985
sg945
g0
(g108
g2
Ntp3399
Rp3400
(dp3401
g14
I00
sg32
I00
sg15
I00
sg112
g306
sg115
g362
sg114
g78
sbsbsS'siStripBackPlaneCorrectionDepESProducer'
p3402
g0
(g7
g2
Ntp3403
Rp3404
(dp3405
g11
(lp3406
S'LatencyRecord'
p3407
aS'BackPlaneCorrectionDeconvMode'
p3408
aS'BackPlaneCorrectionPeakMode'
p3409
asg14
I00
sg15
I00
sg16
I40
sg17
g18
sg3407
g0
(g1400
g2
Ntp3410
Rp3411
(dp3412
g14
I00
sg32
I01
sg15
I00
sg1148
g0
(g74
g2
Ntp3413
Rp3414
(dp3415
g14
I00
sg32
I00
sg64
g78
sg15
I00
sbsg2375
g0
(g74
g2
Ntp3416
Rp3417
(dp3418
g14
I00
sg32
I01
sg64
S'SiStripLatencyRcd'
p3419
sg15
I00
sbsg11
(lp3420
g2375
ag1148
asbsg3409
g0
(g1400
g2
Ntp3421
Rp3422
(dp3423
g14
I00
sg32
I01
sg15
I00
sg1148
g0
(g74
g2
Ntp3424
Rp3425
(dp3426
g14
I00
sg32
I00
sg64
S'peak'
p3427
sg15
I00
sbsg2375
g0
(g74
g2
Ntp3428
Rp3429
(dp3430
g14
I00
sg32
I01
sg64
S'SiStripBackPlaneCorrectionRcd'
p3431
sg15
I00
sbsg11
(lp3432
g2375
ag1148
asbsg34
g3402
sg3408
g0
(g1400
g2
Ntp3433
Rp3434
(dp3435
g14
I00
sg32
I01
sg15
I00
sg1148
g0
(g74
g2
Ntp3436
Rp3437
(dp3438
g14
I00
sg32
I00
sg64
S'deconvolution'
p3439
sg15
I00
sbsg2375
g0
(g74
g2
Ntp3440
Rp3441
(dp3442
g14
I00
sg32
I01
sg64
g3431
sg15
I00
sbsg11
(lp3443
g2375
ag1148
asbsg35
S'SiStripBackPlaneCorrectionDepESProducer'
p3444
sbsS'QWSC44444_4_4_4'
p3445
g0
(g171
g2
Ntp3446
Rp3447
(dp3448
g11
(lp3449
g933
ag934
ag935
ag936
ag937
ag938
ag939
ag940
ag941
ag942
ag943
ag944
ag945
asg14
I00
sg933
g0
(g108
g2
Ntp3450
Rp3451
(dp3452
g14
I00
sg32
I00
sg15
I00
sg112
g306
sg115
g949
sg114
g78
sbsg15
I00
sg934
g0
(g108
g2
Ntp3453
Rp3454
(dp3455
g14
I00
sg32
I00
sg15
I00
sg112
g306
sg115
g307
sg114
g78
sbsg935
g0
(g66
g2
Ntp3456
Rp3457
(dp3458
g14
I00
sg32
I00
sg64
I1
sg15
I00
sbsg936
g0
(g117
g2
Ntp3459
Rp3460
(dp3461
g14
I00
sg32
I00
sg64
F2.4
sg15
I00
sbsg17
g823
sg937
g0
(g117
g2
Ntp3462
Rp3463
(dp3464
g14
I00
sg32
I00
sg64
F-2.4
sg15
I00
sbsg938
g0
(g117
g2
Ntp3465
Rp3466
(dp3467
g14
I00
sg32
I00
sg64
I15
sg15
I00
sbsg939
g0
(g108
g2
Ntp3468
Rp3469
(dp3470
g14
I00
sg32
I00
sg15
I00
sg112
g282
sg115
g283
sg114
g78
sbsg940
g0
(g117
g2
Ntp3471
Rp3472
(dp3473
g14
I00
sg32
I00
sg64
I-15
sg15
I00
sbsg16
I152
sg941
g0
(g971
g20
(lp3474
I4
aI4
aI4
aI4
aI4
aI-4
aI-4
aI-4
atp3475
Rp3476
(dp3477
g14
I00
sg32
I00
sg15
I00
sbsg942
g0
(g108
g2
Ntp3478
Rp3479
(dp3480
g14
I00
sg32
I00
sg15
I00
sg112
g306
sg115
g335
sg114
g78
sbsg34
g3445
sg943
g0
(g66
g2
Ntp3481
Rp3482
(dp3483
g14
I00
sg32
I00
sg64
I100
sg15
I00
sbsg944
g0
(g108
g2
Ntp3484
Rp3485
(dp3486
g14
I00
sg32
I00
sg15
I00
sg112
g306
sg115
g405
sg114
g78
sbsg35
g985
sg945
g0
(g108
g2
Ntp3487
Rp3488
(dp3489
g14
I00
sg32
I00
sg15
I00
sg112
g306
sg115
g362
sg114
g78
sbsbsS'schedule'
p3490
g0
(cFWCore.ParameterSet.SequenceTypes
Schedule
p3491
g20
(lp3492
g0
(cFWCore.ParameterSet.SequenceTypes
Path
p3493
g2
Ntp3494
Rp3495
(dp3496
g14
I00
sg43
g0
(g44
g2
Ntp3497
Rp3498
(dp3499
g48
(lp3500
g802
ag2071
ag2026
ag1981
ag0
(g171
g2
Ntp3501
Rp3502
(dp3503
g11
(lp3504
g933
ag934
ag935
ag936
ag937
ag938
ag939
ag940
ag941
ag942
ag943
ag944
ag945
asg14
I00
sg933
g0
(g108
g2
Ntp3505
Rp3506
(dp3507
g14
I00
sg32
I00
sg15
I00
sg112
g306
sg115
g949
sg114
g78
sbsg15
I00
sg934
g0
(g108
g2
Ntp3508
Rp3509
(dp3510
g14
I00
sg32
I00
sg15
I00
sg112
g306
sg115
g307
sg114
g78
sbsg935
g0
(g66
g2
Ntp3511
Rp3512
(dp3513
g14
I00
sg32
I00
sg64
I1
sg15
I00
sbsg936
g0
(g117
g2
Ntp3514
Rp3515
(dp3516
g14
I00
sg32
I00
sg64
F2.4
sg15
I00
sbsg17
g823
sg937
g0
(g117
g2
Ntp3517
Rp3518
(dp3519
g14
I00
sg32
I00
sg64
F-2.4
sg15
I00
sbsg938
g0
(g117
g2
Ntp3520
Rp3521
(dp3522
g14
I00
sg32
I00
sg64
I15
sg15
I00
sbsg939
g0
(g108
g2
Ntp3523
Rp3524
(dp3525
g14
I00
sg32
I00
sg15
I00
sg112
g282
sg115
g283
sg114
g78
sbsg940
g0
(g117
g2
Ntp3526
Rp3527
(dp3528
g14
I00
sg32
I00
sg64
I-15
sg15
I00
sbsg16
I59
sg941
g0
(g971
g20
(lp3529
I2
aI2
atp3530
Rp3531
(dp3532
g14
I00
sg32
I00
sg15
I00
sbsg942
g0
(g108
g2
Ntp3533
Rp3534
(dp3535
g14
I00
sg32
I00
sg15
I00
sg112
g306
sg115
g335
sg114
g78
sbsg34
S'QWSC22'
p3536
sg943
g0
(g66
g2
Ntp3537
Rp3538
(dp3539
g14
I00
sg32
I00
sg64
I100
sg15
I00
sbsg944
g0
(g108
g2
Ntp3540
Rp3541
(dp3542
g14
I00
sg32
I00
sg15
I00
sg112
g306
sg115
g405
sg114
g78
sbsg35
g985
sg945
g0
(g108
g2
Ntp3543
Rp3544
(dp3545
g14
I00
sg32
I00
sg15
I00
sg112
g306
sg115
g362
sg114
g78
sbsbag1876
ag0
(g171
g2
Ntp3546
Rp3547
(dp3548
g11
(lp3549
g933
ag934
ag935
ag936
ag937
ag938
ag939
ag940
ag941
ag942
ag943
ag944
ag945
asg14
I00
sg933
g0
(g108
g2
Ntp3550
Rp3551
(dp3552
g14
I00
sg32
I00
sg15
I00
sg112
g306
sg115
g949
sg114
g78
sbsg15
I00
sg934
g0
(g108
g2
Ntp3553
Rp3554
(dp3555
g14
I00
sg32
I00
sg15
I00
sg112
g306
sg115
g307
sg114
g78
sbsg935
g0
(g66
g2
Ntp3556
Rp3557
(dp3558
g14
I00
sg32
I00
sg64
I1
sg15
I00
sbsg936
g0
(g117
g2
Ntp3559
Rp3560
(dp3561
g14
I00
sg32
I00
sg64
F2.4
sg15
I00
sbsg17
g823
sg937
g0
(g117
g2
Ntp3562
Rp3563
(dp3564
g14
I00
sg32
I00
sg64
F-2.4
sg15
I00
sbsg938
g0
(g117
g2
Ntp3565
Rp3566
(dp3567
g14
I00
sg32
I00
sg64
I15
sg15
I00
sbsg939
g0
(g108
g2
Ntp3568
Rp3569
(dp3570
g14
I00
sg32
I00
sg15
I00
sg112
g282
sg115
g283
sg114
g78
sbsg940
g0
(g117
g2
Ntp3571
Rp3572
(dp3573
g14
I00
sg32
I00
sg64
I-15
sg15
I00
sbsg16
I62
sg941
g0
(g971
g20
(lp3574
I3
aI3
atp3575
Rp3576
(dp3577
g14
I00
sg32
I00
sg15
I00
sbsg942
g0
(g108
g2
Ntp3578
Rp3579
(dp3580
g14
I00
sg32
I00
sg15
I00
sg112
g306
sg115
g335
sg114
g78
sbsg34
S'QWSC33'
p3581
sg943
g0
(g66
g2
Ntp3582
Rp3583
(dp3584
g14
I00
sg32
I00
sg64
I100
sg15
I00
sbsg944
g0
(g108
g2
Ntp3585
Rp3586
(dp3587
g14
I00
sg32
I00
sg15
I00
sg112
g306
sg115
g405
sg114
g78
sbsg35
g985
sg945
g0
(g108
g2
Ntp3588
Rp3589
(dp3590
g14
I00
sg32
I00
sg15
I00
sg112
g306
sg115
g362
sg114
g78
sbsbag0
(g171
g2
Ntp3591
Rp3592
(dp3593
g11
(lp3594
g933
ag934
ag935
ag936
ag937
ag938
ag939
ag940
ag941
ag942
ag943
ag944
ag945
asg14
I00
sg933
g0
(g108
g2
Ntp3595
Rp3596
(dp3597
g14
I00
sg32
I00
sg15
I00
sg112
g306
sg115
g949
sg114
g78
sbsg15
I00
sg934
g0
(g108
g2
Ntp3598
Rp3599
(dp3600
g14
I00
sg32
I00
sg15
I00
sg112
g306
sg115
g307
sg114
g78
sbsg935
g0
(g66
g2
Ntp3601
Rp3602
(dp3603
g14
I00
sg32
I00
sg64
I1
sg15
I00
sbsg936
g0
(g117
g2
Ntp3604
Rp3605
(dp3606
g14
I00
sg32
I00
sg64
F2.4
sg15
I00
sbsg17
g823
sg937
g0
(g117
g2
Ntp3607
Rp3608
(dp3609
g14
I00
sg32
I00
sg64
F-2.4
sg15
I00
sbsg938
g0
(g117
g2
Ntp3610
Rp3611
(dp3612
g14
I00
sg32
I00
sg64
I15
sg15
I00
sbsg939
g0
(g108
g2
Ntp3613
Rp3614
(dp3615
g14
I00
sg32
I00
sg15
I00
sg112
g282
sg115
g283
sg114
g78
sbsg940
g0
(g117
g2
Ntp3616
Rp3617
(dp3618
g14
I00
sg32
I00
sg64
I-15
sg15
I00
sbsg16
I63
sg941
g0
(g971
g20
(lp3619
I3
aI-3
atp3620
Rp3621
(dp3622
g14
I00
sg32
I00
sg15
I00
sbsg942
g0
(g108
g2
Ntp3623
Rp3624
(dp3625
g14
I00
sg32
I00
sg15
I00
sg112
g306
sg115
g335
sg114
g78
sbsg34
S'QWSC3_3'
p3626
sg943
g0
(g66
g2
Ntp3627
Rp3628
(dp3629
g14
I00
sg32
I00
sg64
I100
sg15
I00
sbsg944
g0
(g108
g2
Ntp3630
Rp3631
(dp3632
g14
I00
sg32
I00
sg15
I00
sg112
g306
sg115
g405
sg114
g78
sbsg35
g985
sg945
g0
(g108
g2
Ntp3633
Rp3634
(dp3635
g14
I00
sg32
I00
sg15
I00
sg112
g306
sg115
g362
sg114
g78
sbsbag2206
ag0
(g171
g2
Ntp3636
Rp3637
(dp3638
g11
(lp3639
g933
ag934
ag935
ag936
ag937
ag938
ag939
ag940
ag941
ag942
ag943
ag944
ag945
asg14
I00
sg933
g0
(g108
g2
Ntp3640
Rp3641
(dp3642
g14
I00
sg32
I00
sg15
I00
sg112
g306
sg115
g949
sg114
g78
sbsg15
I00
sg934
g0
(g108
g2
Ntp3643
Rp3644
(dp3645
g14
I00
sg32
I00
sg15
I00
sg112
g306
sg115
g307
sg114
g78
sbsg935
g0
(g66
g2
Ntp3646
Rp3647
(dp3648
g14
I00
sg32
I00
sg64
I1
sg15
I00
sbsg936
g0
(g117
g2
Ntp3649
Rp3650
(dp3651
g14
I00
sg32
I00
sg64
F2.4
sg15
I00
sbsg17
g823
sg937
g0
(g117
g2
Ntp3652
Rp3653
(dp3654
g14
I00
sg32
I00
sg64
F-2.4
sg15
I00
sbsg938
g0
(g117
g2
Ntp3655
Rp3656
(dp3657
g14
I00
sg32
I00
sg64
I15
sg15
I00
sbsg939
g0
(g108
g2
Ntp3658
Rp3659
(dp3660
g14
I00
sg32
I00
sg15
I00
sg112
g282
sg115
g283
sg114
g78
sbsg940
g0
(g117
g2
Ntp3661
Rp3662
(dp3663
g14
I00
sg32
I00
sg64
I-15
sg15
I00
sbsg16
I66
sg941
g0
(g971
g20
(lp3664
I4
aI-4
atp3665
Rp3666
(dp3667
g14
I00
sg32
I00
sg15
I00
sbsg942
g0
(g108
g2
Ntp3668
Rp3669
(dp3670
g14
I00
sg32
I00
sg15
I00
sg112
g306
sg115
g335
sg114
g78
sbsg34
S'QWSC4_4'
p3671
sg943
g0
(g66
g2
Ntp3672
Rp3673
(dp3674
g14
I00
sg32
I00
sg64
I100
sg15
I00
sbsg944
g0
(g108
g2
Ntp3675
Rp3676
(dp3677
g14
I00
sg32
I00
sg15
I00
sg112
g306
sg115
g405
sg114
g78
sbsg35
g985
sg945
g0
(g108
g2
Ntp3678
Rp3679
(dp3680
g14
I00
sg32
I00
sg15
I00
sg112
g306
sg115
g362
sg114
g78
sbsbag0
(g171
g2
Ntp3681
Rp3682
(dp3683
g11
(lp3684
g933
ag934
ag935
ag936
ag937
ag938
ag939
ag940
ag941
ag942
ag943
ag944
ag945
asg14
I00
sg933
g0
(g108
g2
Ntp3685
Rp3686
(dp3687
g14
I00
sg32
I00
sg15
I00
sg112
g306
sg115
g949
sg114
g78
sbsg15
I00
sg934
g0
(g108
g2
Ntp3688
Rp3689
(dp3690
g14
I00
sg32
I00
sg15
I00
sg112
g306
sg115
g307
sg114
g78
sbsg935
g0
(g66
g2
Ntp3691
Rp3692
(dp3693
g14
I00
sg32
I00
sg64
I1
sg15
I00
sbsg936
g0
(g117
g2
Ntp3694
Rp3695
(dp3696
g14
I00
sg32
I00
sg64
F2.4
sg15
I00
sbsg17
g823
sg937
g0
(g117
g2
Ntp3697
Rp3698
(dp3699
g14
I00
sg32
I00
sg64
F-2.4
sg15
I00
sbsg938
g0
(g117
g2
Ntp3700
Rp3701
(dp3702
g14
I00
sg32
I00
sg64
I15
sg15
I00
sbsg939
g0
(g108
g2
Ntp3703
Rp3704
(dp3705
g14
I00
sg32
I00
sg15
I00
sg112
g282
sg115
g283
sg114
g78
sbsg940
g0
(g117
g2
Ntp3706
Rp3707
(dp3708
g14
I00
sg32
I00
sg64
I-15
sg15
I00
sbsg16
I69
sg941
g0
(g971
g20
(lp3709
I2
aI2
aI2
atp3710
Rp3711
(dp3712
g14
I00
sg32
I00
sg15
I00
sbsg942
g0
(g108
g2
Ntp3713
Rp3714
(dp3715
g14
I00
sg32
I00
sg15
I00
sg112
g306
sg115
g335
sg114
g78
sbsg34
S'QWSC222'
p3716
sg943
g0
(g66
g2
Ntp3717
Rp3718
(dp3719
g14
I00
sg32
I00
sg64
I100
sg15
I00
sbsg944
g0
(g108
g2
Ntp3720
Rp3721
(dp3722
g14
I00
sg32
I00
sg15
I00
sg112
g306
sg115
g405
sg114
g78
sbsg35
g985
sg945
g0
(g108
g2
Ntp3723
Rp3724
(dp3725
g14
I00
sg32
I00
sg15
I00
sg112
g306
sg115
g362
sg114
g78
sbsbag2251
ag0
(g171
g2
Ntp3726
Rp3727
(dp3728
g11
(lp3729
g933
ag934
ag935
ag936
ag937
ag938
ag939
ag940
ag941
ag942
ag943
ag944
ag945
asg14
I00
sg933
g0
(g108
g2
Ntp3730
Rp3731
(dp3732
g14
I00
sg32
I00
sg15
I00
sg112
g306
sg115
g949
sg114
g78
sbsg15
I00
sg934
g0
(g108
g2
Ntp3733
Rp3734
(dp3735
g14
I00
sg32
I00
sg15
I00
sg112
g306
sg115
g307
sg114
g78
sbsg935
g0
(g66
g2
Ntp3736
Rp3737
(dp3738
g14
I00
sg32
I00
sg64
I1
sg15
I00
sbsg936
g0
(g117
g2
Ntp3739
Rp3740
(dp3741
g14
I00
sg32
I00
sg64
F2.4
sg15
I00
sbsg17
g823
sg937
g0
(g117
g2
Ntp3742
Rp3743
(dp3744
g14
I00
sg32
I00
sg64
F-2.4
sg15
I00
sbsg938
g0
(g117
g2
Ntp3745
Rp3746
(dp3747
g14
I00
sg32
I00
sg64
I15
sg15
I00
sbsg939
g0
(g108
g2
Ntp3748
Rp3749
(dp3750
g14
I00
sg32
I00
sg15
I00
sg112
g282
sg115
g283
sg114
g78
sbsg940
g0
(g117
g2
Ntp3751
Rp3752
(dp3753
g14
I00
sg32
I00
sg64
I-15
sg15
I00
sbsg16
I72
sg941
g0
(g971
g20
(lp3754
I3
aI3
aI3
atp3755
Rp3756
(dp3757
g14
I00
sg32
I00
sg15
I00
sbsg942
g0
(g108
g2
Ntp3758
Rp3759
(dp3760
g14
I00
sg32
I00
sg15
I00
sg112
g306
sg115
g335
sg114
g78
sbsg34
S'QWSC333'
p3761
sg943
g0
(g66
g2
Ntp3762
Rp3763
(dp3764
g14
I00
sg32
I00
sg64
I100
sg15
I00
sbsg944
g0
(g108
g2
Ntp3765
Rp3766
(dp3767
g14
I00
sg32
I00
sg15
I00
sg112
g306
sg115
g405
sg114
g78
sbsg35
g985
sg945
g0
(g108
g2
Ntp3768
Rp3769
(dp3770
g14
I00
sg32
I00
sg15
I00
sg112
g306
sg115
g362
sg114
g78
sbsbag2161
ag3167
ag0
(g171
g2
Ntp3771
Rp3772
(dp3773
g11
(lp3774
g933
ag934
ag935
ag936
ag937
ag938
ag939
ag940
ag941
ag942
ag943
ag944
ag945
asg14
I00
sg933
g0
(g108
g2
Ntp3775
Rp3776
(dp3777
g14
I00
sg32
I00
sg15
I00
sg112
g306
sg115
g949
sg114
g78
sbsg15
I00
sg934
g0
(g108
g2
Ntp3778
Rp3779
(dp3780
g14
I00
sg32
I00
sg15
I00
sg112
g306
sg115
g307
sg114
g78
sbsg935
g0
(g66
g2
Ntp3781
Rp3782
(dp3783
g14
I00
sg32
I00
sg64
I1
sg15
I00
sbsg936
g0
(g117
g2
Ntp3784
Rp3785
(dp3786
g14
I00
sg32
I00
sg64
F2.4
sg15
I00
sbsg17
g823
sg937
g0
(g117
g2
Ntp3787
Rp3788
(dp3789
g14
I00
sg32
I00
sg64
F-2.4
sg15
I00
sbsg938
g0
(g117
g2
Ntp3790
Rp3791
(dp3792
g14
I00
sg32
I00
sg64
I15
sg15
I00
sbsg939
g0
(g108
g2
Ntp3793
Rp3794
(dp3795
g14
I00
sg32
I00
sg15
I00
sg112
g282
sg115
g283
sg114
g78
sbsg940
g0
(g117
g2
Ntp3796
Rp3797
(dp3798
g14
I00
sg32
I00
sg64
I-15
sg15
I00
sbsg16
I76
sg941
g0
(g971
g20
(lp3799
I4
aI4
aI-4
atp3800
Rp3801
(dp3802
g14
I00
sg32
I00
sg15
I00
sbsg942
g0
(g108
g2
Ntp3803
Rp3804
(dp3805
g14
I00
sg32
I00
sg15
I00
sg112
g306
sg115
g335
sg114
g78
sbsg34
S'QWSC44_4'
p3806
sg943
g0
(g66
g2
Ntp3807
Rp3808
(dp3809
g14
I00
sg32
I00
sg64
I100
sg15
I00
sbsg944
g0
(g108
g2
Ntp3810
Rp3811
(dp3812
g14
I00
sg32
I00
sg15
I00
sg112
g306
sg115
g405
sg114
g78
sbsg35
g985
sg945
g0
(g108
g2
Ntp3813
Rp3814
(dp3815
g14
I00
sg32
I00
sg15
I00
sg112
g306
sg115
g362
sg114
g78
sbsbag1160
ag930
ag0
(g171
g2
Ntp3816
Rp3817
(dp3818
g11
(lp3819
g933
ag934
ag935
ag936
ag937
ag938
ag939
ag940
ag941
ag942
ag943
ag944
ag945
asg14
I00
sg933
g0
(g108
g2
Ntp3820
Rp3821
(dp3822
g14
I00
sg32
I00
sg15
I00
sg112
g306
sg115
g949
sg114
g78
sbsg15
I00
sg934
g0
(g108
g2
Ntp3823
Rp3824
(dp3825
g14
I00
sg32
I00
sg15
I00
sg112
g306
sg115
g307
sg114
g78
sbsg935
g0
(g66
g2
Ntp3826
Rp3827
(dp3828
g14
I00
sg32
I00
sg64
I1
sg15
I00
sbsg936
g0
(g117
g2
Ntp3829
Rp3830
(dp3831
g14
I00
sg32
I00
sg64
F2.4
sg15
I00
sbsg17
g823
sg937
g0
(g117
g2
Ntp3832
Rp3833
(dp3834
g14
I00
sg32
I00
sg64
F-2.4
sg15
I00
sbsg938
g0
(g117
g2
Ntp3835
Rp3836
(dp3837
g14
I00
sg32
I00
sg64
I15
sg15
I00
sbsg939
g0
(g108
g2
Ntp3838
Rp3839
(dp3840
g14
I00
sg32
I00
sg15
I00
sg112
g282
sg115
g283
sg114
g78
sbsg940
g0
(g117
g2
Ntp3841
Rp3842
(dp3843
g14
I00
sg32
I00
sg64
I-15
sg15
I00
sbsg16
I81
sg941
g0
(g971
g20
(lp3844
I2
aI2
aI-2
aI-2
atp3845
Rp3846
(dp3847
g14
I00
sg32
I00
sg15
I00
sbsg942
g0
(g108
g2
Ntp3848
Rp3849
(dp3850
g14
I00
sg32
I00
sg15
I00
sg112
g306
sg115
g335
sg114
g78
sbsg34
S'QWSC22_2_2'
p3851
sg943
g0
(g66
g2
Ntp3852
Rp3853
(dp3854
g14
I00
sg32
I00
sg64
I100
sg15
I00
sbsg944
g0
(g108
g2
Ntp3855
Rp3856
(dp3857
g14
I00
sg32
I00
sg15
I00
sg112
g306
sg115
g405
sg114
g78
sbsg35
g985
sg945
g0
(g108
g2
Ntp3858
Rp3859
(dp3860
g14
I00
sg32
I00
sg15
I00
sg112
g306
sg115
g362
sg114
g78
sbsbag3055
ag1831
ag0
(g171
g2
Ntp3861
Rp3862
(dp3863
g11
(lp3864
g933
ag934
ag935
ag936
ag937
ag938
ag939
ag940
ag941
ag942
ag943
ag944
ag945
asg14
I00
sg933
g0
(g108
g2
Ntp3865
Rp3866
(dp3867
g14
I00
sg32
I00
sg15
I00
sg112
g306
sg115
g949
sg114
g78
sbsg15
I00
sg934
g0
(g108
g2
Ntp3868
Rp3869
(dp3870
g14
I00
sg32
I00
sg15
I00
sg112
g306
sg115
g307
sg114
g78
sbsg935
g0
(g66
g2
Ntp3871
Rp3872
(dp3873
g14
I00
sg32
I00
sg64
I1
sg15
I00
sbsg936
g0
(g117
g2
Ntp3874
Rp3875
(dp3876
g14
I00
sg32
I00
sg64
F2.4
sg15
I00
sbsg17
g823
sg937
g0
(g117
g2
Ntp3877
Rp3878
(dp3879
g14
I00
sg32
I00
sg64
F-2.4
sg15
I00
sbsg938
g0
(g117
g2
Ntp3880
Rp3881
(dp3882
g14
I00
sg32
I00
sg64
I15
sg15
I00
sbsg939
g0
(g108
g2
Ntp3883
Rp3884
(dp3885
g14
I00
sg32
I00
sg15
I00
sg112
g282
sg115
g283
sg114
g78
sbsg940
g0
(g117
g2
Ntp3886
Rp3887
(dp3888
g14
I00
sg32
I00
sg64
I-15
sg15
I00
sbsg16
I85
sg941
g0
(g971
g20
(lp3889
I3
aI3
aI-3
aI-3
atp3890
Rp3891
(dp3892
g14
I00
sg32
I00
sg15
I00
sbsg942
g0
(g108
g2
Ntp3893
Rp3894
(dp3895
g14
I00
sg32
I00
sg15
I00
sg112
g306
sg115
g335
sg114
g78
sbsg34
S'QWSC33_3_3'
p3896
sg943
g0
(g66
g2
Ntp3897
Rp3898
(dp3899
g14
I00
sg32
I00
sg64
I100
sg15
I00
sbsg944
g0
(g108
g2
Ntp3900
Rp3901
(dp3902
g14
I00
sg32
I00
sg15
I00
sg112
g306
sg115
g405
sg114
g78
sbsg35
g985
sg945
g0
(g108
g2
Ntp3903
Rp3904
(dp3905
g14
I00
sg32
I00
sg15
I00
sg112
g306
sg115
g362
sg114
g78
sbsbag0
(g171
g2
Ntp3906
Rp3907
(dp3908
g11
(lp3909
g933
ag934
ag935
ag936
ag937
ag938
ag939
ag940
ag941
ag942
ag943
ag944
ag945
asg14
I00
sg933
g0
(g108
g2
Ntp3910
Rp3911
(dp3912
g14
I00
sg32
I00
sg15
I00
sg112
g306
sg115
g949
sg114
g78
sbsg15
I00
sg934
g0
(g108
g2
Ntp3913
Rp3914
(dp3915
g14
I00
sg32
I00
sg15
I00
sg112
g306
sg115
g307
sg114
g78
sbsg935
g0
(g66
g2
Ntp3916
Rp3917
(dp3918
g14
I00
sg32
I00
sg64
I1
sg15
I00
sbsg936
g0
(g117
g2
Ntp3919
Rp3920
(dp3921
g14
I00
sg32
I00
sg64
F2.4
sg15
I00
sbsg17
g823
sg937
g0
(g117
g2
Ntp3922
Rp3923
(dp3924
g14
I00
sg32
I00
sg64
F-2.4
sg15
I00
sbsg938
g0
(g117
g2
Ntp3925
Rp3926
(dp3927
g14
I00
sg32
I00
sg64
I15
sg15
I00
sbsg939
g0
(g108
g2
Ntp3928
Rp3929
(dp3930
g14
I00
sg32
I00
sg15
I00
sg112
g282
sg115
g283
sg114
g78
sbsg940
g0
(g117
g2
Ntp3931
Rp3932
(dp3933
g14
I00
sg32
I00
sg64
I-15
sg15
I00
sbsg16
I87
sg941
g0
(g971
g20
(lp3934
I4
aI4
aI4
aI4
atp3935
Rp3936
(dp3937
g14
I00
sg32
I00
sg15
I00
sbsg942
g0
(g108
g2
Ntp3938
Rp3939
(dp3940
g14
I00
sg32
I00
sg15
I00
sg112
g306
sg115
g335
sg114
g78
sbsg34
S'QWSC4444'
p3941
sg943
g0
(g66
g2
Ntp3942
Rp3943
(dp3944
g14
I00
sg32
I00
sg64
I100
sg15
I00
sbsg944
g0
(g108
g2
Ntp3945
Rp3946
(dp3947
g14
I00
sg32
I00
sg15
I00
sg112
g306
sg115
g405
sg114
g78
sbsg35
g985
sg945
g0
(g108
g2
Ntp3948
Rp3949
(dp3950
g14
I00
sg32
I00
sg15
I00
sg112
g306
sg115
g362
sg114
g78
sbsbag2901
ag3212
ag1099
ag1306
ag0
(g171
g2
Ntp3951
Rp3952
(dp3953
g11
(lp3954
g933
ag934
ag935
ag936
ag937
ag938
ag939
ag940
ag941
ag942
ag943
ag944
ag945
asg14
I00
sg933
g0
(g108
g2
Ntp3955
Rp3956
(dp3957
g14
I00
sg32
I00
sg15
I00
sg112
g306
sg115
g949
sg114
g78
sbsg15
I00
sg934
g0
(g108
g2
Ntp3958
Rp3959
(dp3960
g14
I00
sg32
I00
sg15
I00
sg112
g306
sg115
g307
sg114
g78
sbsg935
g0
(g66
g2
Ntp3961
Rp3962
(dp3963
g14
I00
sg32
I00
sg64
I1
sg15
I00
sbsg936
g0
(g117
g2
Ntp3964
Rp3965
(dp3966
g14
I00
sg32
I00
sg64
F2.4
sg15
I00
sbsg17
g823
sg937
g0
(g117
g2
Ntp3967
Rp3968
(dp3969
g14
I00
sg32
I00
sg64
F-2.4
sg15
I00
sbsg938
g0
(g117
g2
Ntp3970
Rp3971
(dp3972
g14
I00
sg32
I00
sg64
I15
sg15
I00
sbsg939
g0
(g108
g2
Ntp3973
Rp3974
(dp3975
g14
I00
sg32
I00
sg15
I00
sg112
g282
sg115
g283
sg114
g78
sbsg940
g0
(g117
g2
Ntp3976
Rp3977
(dp3978
g14
I00
sg32
I00
sg64
I-15
sg15
I00
sbsg16
I94
sg941
g0
(g971
g20
(lp3979
I2
aI2
aI2
aI-2
aI-2
atp3980
Rp3981
(dp3982
g14
I00
sg32
I00
sg15
I00
sbsg942
g0
(g108
g2
Ntp3983
Rp3984
(dp3985
g14
I00
sg32
I00
sg15
I00
sg112
g306
sg115
g335
sg114
g78
sbsg34
S'QWSC222_2_2'
p3986
sg943
g0
(g66
g2
Ntp3987
Rp3988
(dp3989
g14
I00
sg32
I00
sg64
I100
sg15
I00
sbsg944
g0
(g108
g2
Ntp3990
Rp3991
(dp3992
g14
I00
sg32
I00
sg15
I00
sg112
g306
sg115
g405
sg114
g78
sbsg35
g985
sg945
g0
(g108
g2
Ntp3993
Rp3994
(dp3995
g14
I00
sg32
I00
sg15
I00
sg112
g306
sg115
g362
sg114
g78
sbsbag991
ag0
(g171
g2
Ntp3996
Rp3997
(dp3998
g11
(lp3999
g933
ag934
ag935
ag936
ag937
ag938
ag939
ag940
ag941
ag942
ag943
ag944
ag945
asg14
I00
sg933
g0
(g108
g2
Ntp4000
Rp4001
(dp4002
g14
I00
sg32
I00
sg15
I00
sg112
g306
sg115
g949
sg114
g78
sbsg15
I00
sg934
g0
(g108
g2
Ntp4003
Rp4004
(dp4005
g14
I00
sg32
I00
sg15
I00
sg112
g306
sg115
g307
sg114
g78
sbsg935
g0
(g66
g2
Ntp4006
Rp4007
(dp4008
g14
I00
sg32
I00
sg64
I1
sg15
I00
sbsg936
g0
(g117
g2
Ntp4009
Rp4010
(dp4011
g14
I00
sg32
I00
sg64
F2.4
sg15
I00
sbsg17
g823
sg937
g0
(g117
g2
Ntp4012
Rp4013
(dp4014
g14
I00
sg32
I00
sg64
F-2.4
sg15
I00
sbsg938
g0
(g117
g2
Ntp4015
Rp4016
(dp4017
g14
I00
sg32
I00
sg64
I15
sg15
I00
sbsg939
g0
(g108
g2
Ntp4018
Rp4019
(dp4020
g14
I00
sg32
I00
sg15
I00
sg112
g282
sg115
g283
sg114
g78
sbsg940
g0
(g117
g2
Ntp4021
Rp4022
(dp4023
g14
I00
sg32
I00
sg64
I-15
sg15
I00
sbsg16
I97
sg941
g0
(g971
g20
(lp4024
I3
aI3
aI3
aI3
aI-3
atp4025
Rp4026
(dp4027
g14
I00
sg32
I00
sg15
I00
sbsg942
g0
(g108
g2
Ntp4028
Rp4029
(dp4030
g14
I00
sg32
I00
sg15
I00
sg112
g306
sg115
g335
sg114
g78
sbsg34
S'QWSC3333_3'
p4031
sg943
g0
(g66
g2
Ntp4032
Rp4033
(dp4034
g14
I00
sg32
I00
sg64
I100
sg15
I00
sbsg944
g0
(g108
g2
Ntp4035
Rp4036
(dp4037
g14
I00
sg32
I00
sg15
I00
sg112
g306
sg115
g405
sg114
g78
sbsg35
g985
sg945
g0
(g108
g2
Ntp4038
Rp4039
(dp4040
g14
I00
sg32
I00
sg15
I00
sg112
g306
sg115
g362
sg114
g78
sbsbag0
(g171
g2
Ntp4041
Rp4042
(dp4043
g11
(lp4044
g933
ag934
ag935
ag936
ag937
ag938
ag939
ag940
ag941
ag942
ag943
ag944
ag945
asg14
I00
sg933
g0
(g108
g2
Ntp4045
Rp4046
(dp4047
g14
I00
sg32
I00
sg15
I00
sg112
g306
sg115
g949
sg114
g78
sbsg15
I00
sg934
g0
(g108
g2
Ntp4048
Rp4049
(dp4050
g14
I00
sg32
I00
sg15
I00
sg112
g306
sg115
g307
sg114
g78
sbsg935
g0
(g66
g2
Ntp4051
Rp4052
(dp4053
g14
I00
sg32
I00
sg64
I1
sg15
I00
sbsg936
g0
(g117
g2
Ntp4054
Rp4055
(dp4056
g14
I00
sg32
I00
sg64
F2.4
sg15
I00
sbsg17
g823
sg937
g0
(g117
g2
Ntp4057
Rp4058
(dp4059
g14
I00
sg32
I00
sg64
F-2.4
sg15
I00
sbsg938
g0
(g117
g2
Ntp4060
Rp4061
(dp4062
g14
I00
sg32
I00
sg64
I15
sg15
I00
sbsg939
g0
(g108
g2
Ntp4063
Rp4064
(dp4065
g14
I00
sg32
I00
sg15
I00
sg112
g282
sg115
g283
sg114
g78
sbsg940
g0
(g117
g2
Ntp4066
Rp4067
(dp4068
g14
I00
sg32
I00
sg64
I-15
sg15
I00
sbsg16
I98
sg941
g0
(g971
g20
(lp4069
I3
aI3
aI3
aI-3
aI-3
atp4070
Rp4071
(dp4072
g14
I00
sg32
I00
sg15
I00
sbsg942
g0
(g108
g2
Ntp4073
Rp4074
(dp4075
g14
I00
sg32
I00
sg15
I00
sg112
g306
sg115
g335
sg114
g78
sbsg34
S'QWSC333_3_3'
p4076
sg943
g0
(g66
g2
Ntp4077
Rp4078
(dp4079
g14
I00
sg32
I00
sg64
I100
sg15
I00
sbsg944
g0
(g108
g2
Ntp4080
Rp4081
(dp4082
g14
I00
sg32
I00
sg15
I00
sg112
g306
sg115
g405
sg114
g78
sbsg35
g985
sg945
g0
(g108
g2
Ntp4083
Rp4084
(dp4085
g14
I00
sg32
I00
sg15
I00
sg112
g306
sg115
g362
sg114
g78
sbsbag2946
ag0
(g171
g2
Ntp4086
Rp4087
(dp4088
g11
(lp4089
g933
ag934
ag935
ag936
ag937
ag938
ag939
ag940
ag941
ag942
ag943
ag944
ag945
asg14
I00
sg933
g0
(g108
g2
Ntp4090
Rp4091
(dp4092
g14
I00
sg32
I00
sg15
I00
sg112
g306
sg115
g949
sg114
g78
sbsg15
I00
sg934
g0
(g108
g2
Ntp4093
Rp4094
(dp4095
g14
I00
sg32
I00
sg15
I00
sg112
g306
sg115
g307
sg114
g78
sbsg935
g0
(g66
g2
Ntp4096
Rp4097
(dp4098
g14
I00
sg32
I00
sg64
I1
sg15
I00
sbsg936
g0
(g117
g2
Ntp4099
Rp4100
(dp4101
g14
I00
sg32
I00
sg64
F2.4
sg15
I00
sbsg17
g823
sg937
g0
(g117
g2
Ntp4102
Rp4103
(dp4104
g14
I00
sg32
I00
sg64
F-2.4
sg15
I00
sbsg938
g0
(g117
g2
Ntp4105
Rp4106
(dp4107
g14
I00
sg32
I00
sg64
I15
sg15
I00
sbsg939
g0
(g108
g2
Ntp4108
Rp4109
(dp4110
g14
I00
sg32
I00
sg15
I00
sg112
g282
sg115
g283
sg114
g78
sbsg940
g0
(g117
g2
Ntp4111
Rp4112
(dp4113
g14
I00
sg32
I00
sg64
I-15
sg15
I00
sbsg16
I101
sg941
g0
(g971
g20
(lp4114
I4
aI4
aI4
aI4
aI-4
atp4115
Rp4116
(dp4117
g14
I00
sg32
I00
sg15
I00
sbsg942
g0
(g108
g2
Ntp4118
Rp4119
(dp4120
g14
I00
sg32
I00
sg15
I00
sg112
g306
sg115
g335
sg114
g78
sbsg34
S'QWSC4444_4'
p4121
sg943
g0
(g66
g2
Ntp4122
Rp4123
(dp4124
g14
I00
sg32
I00
sg64
I100
sg15
I00
sbsg944
g0
(g108
g2
Ntp4125
Rp4126
(dp4127
g14
I00
sg32
I00
sg15
I00
sg112
g306
sg115
g405
sg114
g78
sbsg35
g985
sg945
g0
(g108
g2
Ntp4128
Rp4129
(dp4130
g14
I00
sg32
I00
sg15
I00
sg112
g306
sg115
g362
sg114
g78
sbsbag1205
ag0
(g171
g2
Ntp4131
Rp4132
(dp4133
g11
(lp4134
g933
ag934
ag935
ag936
ag937
ag938
ag939
ag940
ag941
ag942
ag943
ag944
ag945
asg14
I00
sg933
g0
(g108
g2
Ntp4135
Rp4136
(dp4137
g14
I00
sg32
I00
sg15
I00
sg112
g306
sg115
g949
sg114
g78
sbsg15
I00
sg934
g0
(g108
g2
Ntp4138
Rp4139
(dp4140
g14
I00
sg32
I00
sg15
I00
sg112
g306
sg115
g307
sg114
g78
sbsg935
g0
(g66
g2
Ntp4141
Rp4142
(dp4143
g14
I00
sg32
I00
sg64
I1
sg15
I00
sbsg936
g0
(g117
g2
Ntp4144
Rp4145
(dp4146
g14
I00
sg32
I00
sg64
F2.4
sg15
I00
sbsg17
g823
sg937
g0
(g117
g2
Ntp4147
Rp4148
(dp4149
g14
I00
sg32
I00
sg64
F-2.4
sg15
I00
sbsg938
g0
(g117
g2
Ntp4150
Rp4151
(dp4152
g14
I00
sg32
I00
sg64
I15
sg15
I00
sbsg939
g0
(g108
g2
Ntp4153
Rp4154
(dp4155
g14
I00
sg32
I00
sg15
I00
sg112
g282
sg115
g283
sg114
g78
sbsg940
g0
(g117
g2
Ntp4156
Rp4157
(dp4158
g14
I00
sg32
I00
sg64
I-15
sg15
I00
sbsg16
I105
sg941
g0
(g971
g20
(lp4159
I2
aI2
aI2
aI2
aI2
aI2
atp4160
Rp4161
(dp4162
g14
I00
sg32
I00
sg15
I00
sbsg942
g0
(g108
g2
Ntp4163
Rp4164
(dp4165
g14
I00
sg32
I00
sg15
I00
sg112
g306
sg115
g335
sg114
g78
sbsg34
S'QWSC222222'
p4166
sg943
g0
(g66
g2
Ntp4167
Rp4168
(dp4169
g14
I00
sg32
I00
sg64
I100
sg15
I00
sbsg944
g0
(g108
g2
Ntp4170
Rp4171
(dp4172
g14
I00
sg32
I00
sg15
I00
sg112
g306
sg115
g405
sg114
g78
sbsg35
g985
sg945
g0
(g108
g2
Ntp4173
Rp4174
(dp4175
g14
I00
sg32
I00
sg15
I00
sg112
g306
sg115
g362
sg114
g78
sbsbag2116
ag0
(g171
g2
Ntp4176
Rp4177
(dp4178
g11
(lp4179
g933
ag934
ag935
ag936
ag937
ag938
ag939
ag940
ag941
ag942
ag943
ag944
ag945
asg14
I00
sg933
g0
(g108
g2
Ntp4180
Rp4181
(dp4182
g14
I00
sg32
I00
sg15
I00
sg112
g306
sg115
g949
sg114
g78
sbsg15
I00
sg934
g0
(g108
g2
Ntp4183
Rp4184
(dp4185
g14
I00
sg32
I00
sg15
I00
sg112
g306
sg115
g307
sg114
g78
sbsg935
g0
(g66
g2
Ntp4186
Rp4187
(dp4188
g14
I00
sg32
I00
sg64
I1
sg15
I00
sbsg936
g0
(g117
g2
Ntp4189
Rp4190
(dp4191
g14
I00
sg32
I00
sg64
F2.4
sg15
I00
sbsg17
g823
sg937
g0
(g117
g2
Ntp4192
Rp4193
(dp4194
g14
I00
sg32
I00
sg64
F-2.4
sg15
I00
sbsg938
g0
(g117
g2
Ntp4195
Rp4196
(dp4197
g14
I00
sg32
I00
sg64
I15
sg15
I00
sbsg939
g0
(g108
g2
Ntp4198
Rp4199
(dp4200
g14
I00
sg32
I00
sg15
I00
sg112
g282
sg115
g283
sg114
g78
sbsg940
g0
(g117
g2
Ntp4201
Rp4202
(dp4203
g14
I00
sg32
I00
sg64
I-15
sg15
I00
sbsg16
I107
sg941
g0
(g971
g20
(lp4204
I2
aI2
aI2
aI2
aI-2
aI-2
atp4205
Rp4206
(dp4207
g14
I00
sg32
I00
sg15
I00
sbsg942
g0
(g108
g2
Ntp4208
Rp4209
(dp4210
g14
I00
sg32
I00
sg15
I00
sg112
g306
sg115
g335
sg114
g78
sbsg34
S'QWSC2222_2_2'
p4211
sg943
g0
(g66
g2
Ntp4212
Rp4213
(dp4214
g14
I00
sg32
I00
sg64
I100
sg15
I00
sbsg944
g0
(g108
g2
Ntp4215
Rp4216
(dp4217
g14
I00
sg32
I00
sg15
I00
sg112
g306
sg115
g405
sg114
g78
sbsg35
g985
sg945
g0
(g108
g2
Ntp4218
Rp4219
(dp4220
g14
I00
sg32
I00
sg15
I00
sg112
g306
sg115
g362
sg114
g78
sbsbag0
(g171
g2
Ntp4221
Rp4222
(dp4223
g11
(lp4224
g933
ag934
ag935
ag936
ag937
ag938
ag939
ag940
ag941
ag942
ag943
ag944
ag945
asg14
I00
sg933
g0
(g108
g2
Ntp4225
Rp4226
(dp4227
g14
I00
sg32
I00
sg15
I00
sg112
g306
sg115
g949
sg114
g78
sbsg15
I00
sg934
g0
(g108
g2
Ntp4228
Rp4229
(dp4230
g14
I00
sg32
I00
sg15
I00
sg112
g306
sg115
g307
sg114
g78
sbsg935
g0
(g66
g2
Ntp4231
Rp4232
(dp4233
g14
I00
sg32
I00
sg64
I1
sg15
I00
sbsg936
g0
(g117
g2
Ntp4234
Rp4235
(dp4236
g14
I00
sg32
I00
sg64
F2.4
sg15
I00
sbsg17
g823
sg937
g0
(g117
g2
Ntp4237
Rp4238
(dp4239
g14
I00
sg32
I00
sg64
F-2.4
sg15
I00
sbsg938
g0
(g117
g2
Ntp4240
Rp4241
(dp4242
g14
I00
sg32
I00
sg64
I15
sg15
I00
sbsg939
g0
(g108
g2
Ntp4243
Rp4244
(dp4245
g14
I00
sg32
I00
sg15
I00
sg112
g282
sg115
g283
sg114
g78
sbsg940
g0
(g117
g2
Ntp4246
Rp4247
(dp4248
g14
I00
sg32
I00
sg64
I-15
sg15
I00
sbsg16
I108
sg941
g0
(g971
g20
(lp4249
I2
aI2
aI2
aI-2
aI-2
aI-2
atp4250
Rp4251
(dp4252
g14
I00
sg32
I00
sg15
I00
sbsg942
g0
(g108
g2
Ntp4253
Rp4254
(dp4255
g14
I00
sg32
I00
sg15
I00
sg112
g306
sg115
g335
sg114
g78
sbsg34
S'QWSC222_2_2_2'
p4256
sg943
g0
(g66
g2
Ntp4257
Rp4258
(dp4259
g14
I00
sg32
I00
sg64
I100
sg15
I00
sbsg944
g0
(g108
g2
Ntp4260
Rp4261
(dp4262
g14
I00
sg32
I00
sg15
I00
sg112
g306
sg115
g405
sg114
g78
sbsg35
g985
sg945
g0
(g108
g2
Ntp4263
Rp4264
(dp4265
g14
I00
sg32
I00
sg15
I00
sg112
g306
sg115
g362
sg114
g78
sbsbag0
(g171
g2
Ntp4266
Rp4267
(dp4268
g11
(lp4269
g933
ag934
ag935
ag936
ag937
ag938
ag939
ag940
ag941
ag942
ag943
ag944
ag945
asg14
I00
sg933
g0
(g108
g2
Ntp4270
Rp4271
(dp4272
g14
I00
sg32
I00
sg15
I00
sg112
g306
sg115
g949
sg114
g78
sbsg15
I00
sg934
g0
(g108
g2
Ntp4273
Rp4274
(dp4275
g14
I00
sg32
I00
sg15
I00
sg112
g306
sg115
g307
sg114
g78
sbsg935
g0
(g66
g2
Ntp4276
Rp4277
(dp4278
g14
I00
sg32
I00
sg64
I1
sg15
I00
sbsg936
g0
(g117
g2
Ntp4279
Rp4280
(dp4281
g14
I00
sg32
I00
sg64
F2.4
sg15
I00
sbsg17
g823
sg937
g0
(g117
g2
Ntp4282
Rp4283
(dp4284
g14
I00
sg32
I00
sg64
F-2.4
sg15
I00
sbsg938
g0
(g117
g2
Ntp4285
Rp4286
(dp4287
g14
I00
sg32
I00
sg64
I15
sg15
I00
sbsg939
g0
(g108
g2
Ntp4288
Rp4289
(dp4290
g14
I00
sg32
I00
sg15
I00
sg112
g282
sg115
g283
sg114
g78
sbsg940
g0
(g117
g2
Ntp4291
Rp4292
(dp4293
g14
I00
sg32
I00
sg64
I-15
sg15
I00
sbsg16
I110
sg941
g0
(g971
g20
(lp4294
I3
aI3
aI3
aI3
aI3
aI3
atp4295
Rp4296
(dp4297
g14
I00
sg32
I00
sg15
I00
sbsg942
g0
(g108
g2
Ntp4298
Rp4299
(dp4300
g14
I00
sg32
I00
sg15
I00
sg112
g306
sg115
g335
sg114
g78
sbsg34
S'QWSC333333'
p4301
sg943
g0
(g66
g2
Ntp4302
Rp4303
(dp4304
g14
I00
sg32
I00
sg64
I100
sg15
I00
sbsg944
g0
(g108
g2
Ntp4305
Rp4306
(dp4307
g14
I00
sg32
I00
sg15
I00
sg112
g306
sg115
g405
sg114
g78
sbsg35
g985
sg945
g0
(g108
g2
Ntp4308
Rp4309
(dp4310
g14
I00
sg32
I00
sg15
I00
sg112
g306
sg115
g362
sg114
g78
sbsbag0
(g171
g2
Ntp4311
Rp4312
(dp4313
g11
(lp4314
g933
ag934
ag935
ag936
ag937
ag938
ag939
ag940
ag941
ag942
ag943
ag944
ag945
asg14
I00
sg933
g0
(g108
g2
Ntp4315
Rp4316
(dp4317
g14
I00
sg32
I00
sg15
I00
sg112
g306
sg115
g949
sg114
g78
sbsg15
I00
sg934
g0
(g108
g2
Ntp4318
Rp4319
(dp4320
g14
I00
sg32
I00
sg15
I00
sg112
g306
sg115
g307
sg114
g78
sbsg935
g0
(g66
g2
Ntp4321
Rp4322
(dp4323
g14
I00
sg32
I00
sg64
I1
sg15
I00
sbsg936
g0
(g117
g2
Ntp4324
Rp4325
(dp4326
g14
I00
sg32
I00
sg64
F2.4
sg15
I00
sbsg17
g823
sg937
g0
(g117
g2
Ntp4327
Rp4328
(dp4329
g14
I00
sg32
I00
sg64
F-2.4
sg15
I00
sbsg938
g0
(g117
g2
Ntp4330
Rp4331
(dp4332
g14
I00
sg32
I00
sg64
I15
sg15
I00
sbsg939
g0
(g108
g2
Ntp4333
Rp4334
(dp4335
g14
I00
sg32
I00
sg15
I00
sg112
g282
sg115
g283
sg114
g78
sbsg940
g0
(g117
g2
Ntp4336
Rp4337
(dp4338
g14
I00
sg32
I00
sg64
I-15
sg15
I00
sbsg16
I111
sg941
g0
(g971
g20
(lp4339
I3
aI3
aI3
aI3
aI3
aI-3
atp4340
Rp4341
(dp4342
g14
I00
sg32
I00
sg15
I00
sbsg942
g0
(g108
g2
Ntp4343
Rp4344
(dp4345
g14
I00
sg32
I00
sg15
I00
sg112
g306
sg115
g335
sg114
g78
sbsg34
S'QWSC33333_3'
p4346
sg943
g0
(g66
g2
Ntp4347
Rp4348
(dp4349
g14
I00
sg32
I00
sg64
I100
sg15
I00
sbsg944
g0
(g108
g2
Ntp4350
Rp4351
(dp4352
g14
I00
sg32
I00
sg15
I00
sg112
g306
sg115
g405
sg114
g78
sbsg35
g985
sg945
g0
(g108
g2
Ntp4353
Rp4354
(dp4355
g14
I00
sg32
I00
sg15
I00
sg112
g306
sg115
g362
sg114
g78
sbsbag2470
ag0
(g171
g2
Ntp4356
Rp4357
(dp4358
g11
(lp4359
g933
ag934
ag935
ag936
ag937
ag938
ag939
ag940
ag941
ag942
ag943
ag944
ag945
asg14
I00
sg933
g0
(g108
g2
Ntp4360
Rp4361
(dp4362
g14
I00
sg32
I00
sg15
I00
sg112
g306
sg115
g949
sg114
g78
sbsg15
I00
sg934
g0
(g108
g2
Ntp4363
Rp4364
(dp4365
g14
I00
sg32
I00
sg15
I00
sg112
g306
sg115
g307
sg114
g78
sbsg935
g0
(g66
g2
Ntp4366
Rp4367
(dp4368
g14
I00
sg32
I00
sg64
I1
sg15
I00
sbsg936
g0
(g117
g2
Ntp4369
Rp4370
(dp4371
g14
I00
sg32
I00
sg64
F2.4
sg15
I00
sbsg17
g823
sg937
g0
(g117
g2
Ntp4372
Rp4373
(dp4374
g14
I00
sg32
I00
sg64
F-2.4
sg15
I00
sbsg938
g0
(g117
g2
Ntp4375
Rp4376
(dp4377
g14
I00
sg32
I00
sg64
I15
sg15
I00
sbsg939
g0
(g108
g2
Ntp4378
Rp4379
(dp4380
g14
I00
sg32
I00
sg15
I00
sg112
g282
sg115
g283
sg114
g78
sbsg940
g0
(g117
g2
Ntp4381
Rp4382
(dp4383
g14
I00
sg32
I00
sg64
I-15
sg15
I00
sbsg16
I113
sg941
g0
(g971
g20
(lp4384
I3
aI3
aI3
aI-3
aI-3
aI-3
atp4385
Rp4386
(dp4387
g14
I00
sg32
I00
sg15
I00
sbsg942
g0
(g108
g2
Ntp4388
Rp4389
(dp4390
g14
I00
sg32
I00
sg15
I00
sg112
g306
sg115
g335
sg114
g78
sbsg34
S'QWSC333_3_3_3'
p4391
sg943
g0
(g66
g2
Ntp4392
Rp4393
(dp4394
g14
I00
sg32
I00
sg64
I100
sg15
I00
sbsg944
g0
(g108
g2
Ntp4395
Rp4396
(dp4397
g14
I00
sg32
I00
sg15
I00
sg112
g306
sg115
g405
sg114
g78
sbsg35
g985
sg945
g0
(g108
g2
Ntp4398
Rp4399
(dp4400
g14
I00
sg32
I00
sg15
I00
sg112
g306
sg115
g362
sg114
g78
sbsbag0
(g171
g2
Ntp4401
Rp4402
(dp4403
g11
(lp4404
g933
ag934
ag935
ag936
ag937
ag938
ag939
ag940
ag941
ag942
ag943
ag944
ag945
asg14
I00
sg933
g0
(g108
g2
Ntp4405
Rp4406
(dp4407
g14
I00
sg32
I00
sg15
I00
sg112
g306
sg115
g949
sg114
g78
sbsg15
I00
sg934
g0
(g108
g2
Ntp4408
Rp4409
(dp4410
g14
I00
sg32
I00
sg15
I00
sg112
g306
sg115
g307
sg114
g78
sbsg935
g0
(g66
g2
Ntp4411
Rp4412
(dp4413
g14
I00
sg32
I00
sg64
I1
sg15
I00
sbsg936
g0
(g117
g2
Ntp4414
Rp4415
(dp4416
g14
I00
sg32
I00
sg64
F2.4
sg15
I00
sbsg17
g823
sg937
g0
(g117
g2
Ntp4417
Rp4418
(dp4419
g14
I00
sg32
I00
sg64
F-2.4
sg15
I00
sbsg938
g0
(g117
g2
Ntp4420
Rp4421
(dp4422
g14
I00
sg32
I00
sg64
I15
sg15
I00
sbsg939
g0
(g108
g2
Ntp4423
Rp4424
(dp4425
g14
I00
sg32
I00
sg15
I00
sg112
g282
sg115
g283
sg114
g78
sbsg940
g0
(g117
g2
Ntp4426
Rp4427
(dp4428
g14
I00
sg32
I00
sg64
I-15
sg15
I00
sbsg16
I115
sg941
g0
(g971
g20
(lp4429
I4
aI4
aI4
aI4
aI4
aI4
atp4430
Rp4431
(dp4432
g14
I00
sg32
I00
sg15
I00
sbsg942
g0
(g108
g2
Ntp4433
Rp4434
(dp4435
g14
I00
sg32
I00
sg15
I00
sg112
g306
sg115
g335
sg114
g78
sbsg34
S'QWSC444444'
p4436
sg943
g0
(g66
g2
Ntp4437
Rp4438
(dp4439
g14
I00
sg32
I00
sg64
I100
sg15
I00
sbsg944
g0
(g108
g2
Ntp4440
Rp4441
(dp4442
g14
I00
sg32
I00
sg15
I00
sg112
g306
sg115
g405
sg114
g78
sbsg35
g985
sg945
g0
(g108
g2
Ntp4443
Rp4444
(dp4445
g14
I00
sg32
I00
sg15
I00
sg112
g306
sg115
g362
sg114
g78
sbsbag0
(g171
g2
Ntp4446
Rp4447
(dp4448
g11
(lp4449
g933
ag934
ag935
ag936
ag937
ag938
ag939
ag940
ag941
ag942
ag943
ag944
ag945
asg14
I00
sg933
g0
(g108
g2
Ntp4450
Rp4451
(dp4452
g14
I00
sg32
I00
sg15
I00
sg112
g306
sg115
g949
sg114
g78
sbsg15
I00
sg934
g0
(g108
g2
Ntp4453
Rp4454
(dp4455
g14
I00
sg32
I00
sg15
I00
sg112
g306
sg115
g307
sg114
g78
sbsg935
g0
(g66
g2
Ntp4456
Rp4457
(dp4458
g14
I00
sg32
I00
sg64
I1
sg15
I00
sbsg936
g0
(g117
g2
Ntp4459
Rp4460
(dp4461
g14
I00
sg32
I00
sg64
F2.4
sg15
I00
sbsg17
g823
sg937
g0
(g117
g2
Ntp4462
Rp4463
(dp4464
g14
I00
sg32
I00
sg64
F-2.4
sg15
I00
sbsg938
g0
(g117
g2
Ntp4465
Rp4466
(dp4467
g14
I00
sg32
I00
sg64
I15
sg15
I00
sbsg939
g0
(g108
g2
Ntp4468
Rp4469
(dp4470
g14
I00
sg32
I00
sg15
I00
sg112
g282
sg115
g283
sg114
g78
sbsg940
g0
(g117
g2
Ntp4471
Rp4472
(dp4473
g14
I00
sg32
I00
sg64
I-15
sg15
I00
sbsg16
I116
sg941
g0
(g971
g20
(lp4474
I4
aI4
aI4
aI4
aI4
aI-4
atp4475
Rp4476
(dp4477
g14
I00
sg32
I00
sg15
I00
sbsg942
g0
(g108
g2
Ntp4478
Rp4479
(dp4480
g14
I00
sg32
I00
sg15
I00
sg112
g306
sg115
g335
sg114
g78
sbsg34
S'QWSC44444_4'
p4481
sg943
g0
(g66
g2
Ntp4482
Rp4483
(dp4484
g14
I00
sg32
I00
sg64
I100
sg15
I00
sbsg944
g0
(g108
g2
Ntp4485
Rp4486
(dp4487
g14
I00
sg32
I00
sg15
I00
sg112
g306
sg115
g405
sg114
g78
sbsg35
g985
sg945
g0
(g108
g2
Ntp4488
Rp4489
(dp4490
g14
I00
sg32
I00
sg15
I00
sg112
g306
sg115
g362
sg114
g78
sbsbag0
(g171
g2
Ntp4491
Rp4492
(dp4493
g11
(lp4494
g933
ag934
ag935
ag936
ag937
ag938
ag939
ag940
ag941
ag942
ag943
ag944
ag945
asg14
I00
sg933
g0
(g108
g2
Ntp4495
Rp4496
(dp4497
g14
I00
sg32
I00
sg15
I00
sg112
g306
sg115
g949
sg114
g78
sbsg15
I00
sg934
g0
(g108
g2
Ntp4498
Rp4499
(dp4500
g14
I00
sg32
I00
sg15
I00
sg112
g306
sg115
g307
sg114
g78
sbsg935
g0
(g66
g2
Ntp4501
Rp4502
(dp4503
g14
I00
sg32
I00
sg64
I1
sg15
I00
sbsg936
g0
(g117
g2
Ntp4504
Rp4505
(dp4506
g14
I00
sg32
I00
sg64
F2.4
sg15
I00
sbsg17
g823
sg937
g0
(g117
g2
Ntp4507
Rp4508
(dp4509
g14
I00
sg32
I00
sg64
F-2.4
sg15
I00
sbsg938
g0
(g117
g2
Ntp4510
Rp4511
(dp4512
g14
I00
sg32
I00
sg64
I15
sg15
I00
sbsg939
g0
(g108
g2
Ntp4513
Rp4514
(dp4515
g14
I00
sg32
I00
sg15
I00
sg112
g282
sg115
g283
sg114
g78
sbsg940
g0
(g117
g2
Ntp4516
Rp4517
(dp4518
g14
I00
sg32
I00
sg64
I-15
sg15
I00
sbsg16
I117
sg941
g0
(g971
g20
(lp4519
I4
aI4
aI4
aI4
aI-4
aI-4
atp4520
Rp4521
(dp4522
g14
I00
sg32
I00
sg15
I00
sbsg942
g0
(g108
g2
Ntp4523
Rp4524
(dp4525
g14
I00
sg32
I00
sg15
I00
sg112
g306
sg115
g335
sg114
g78
sbsg34
S'QWSC4444_4_4'
p4526
sg943
g0
(g66
g2
Ntp4527
Rp4528
(dp4529
g14
I00
sg32
I00
sg64
I100
sg15
I00
sbsg944
g0
(g108
g2
Ntp4530
Rp4531
(dp4532
g14
I00
sg32
I00
sg15
I00
sg112
g306
sg115
g405
sg114
g78
sbsg35
g985
sg945
g0
(g108
g2
Ntp4533
Rp4534
(dp4535
g14
I00
sg32
I00
sg15
I00
sg112
g306
sg115
g362
sg114
g78
sbsbag0
(g171
g2
Ntp4536
Rp4537
(dp4538
g11
(lp4539
g933
ag934
ag935
ag936
ag937
ag938
ag939
ag940
ag941
ag942
ag943
ag944
ag945
asg14
I00
sg933
g0
(g108
g2
Ntp4540
Rp4541
(dp4542
g14
I00
sg32
I00
sg15
I00
sg112
g306
sg115
g949
sg114
g78
sbsg15
I00
sg934
g0
(g108
g2
Ntp4543
Rp4544
(dp4545
g14
I00
sg32
I00
sg15
I00
sg112
g306
sg115
g307
sg114
g78
sbsg935
g0
(g66
g2
Ntp4546
Rp4547
(dp4548
g14
I00
sg32
I00
sg64
I1
sg15
I00
sbsg936
g0
(g117
g2
Ntp4549
Rp4550
(dp4551
g14
I00
sg32
I00
sg64
F2.4
sg15
I00
sbsg17
g823
sg937
g0
(g117
g2
Ntp4552
Rp4553
(dp4554
g14
I00
sg32
I00
sg64
F-2.4
sg15
I00
sbsg938
g0
(g117
g2
Ntp4555
Rp4556
(dp4557
g14
I00
sg32
I00
sg64
I15
sg15
I00
sbsg939
g0
(g108
g2
Ntp4558
Rp4559
(dp4560
g14
I00
sg32
I00
sg15
I00
sg112
g282
sg115
g283
sg114
g78
sbsg940
g0
(g117
g2
Ntp4561
Rp4562
(dp4563
g14
I00
sg32
I00
sg64
I-15
sg15
I00
sbsg16
I118
sg941
g0
(g971
g20
(lp4564
I4
aI4
aI4
aI-4
aI-4
aI-4
atp4565
Rp4566
(dp4567
g14
I00
sg32
I00
sg15
I00
sbsg942
g0
(g108
g2
Ntp4568
Rp4569
(dp4570
g14
I00
sg32
I00
sg15
I00
sg112
g306
sg115
g335
sg114
g78
sbsg34
S'QWSC444_4_4_4'
p4571
sg943
g0
(g66
g2
Ntp4572
Rp4573
(dp4574
g14
I00
sg32
I00
sg64
I100
sg15
I00
sbsg944
g0
(g108
g2
Ntp4575
Rp4576
(dp4577
g14
I00
sg32
I00
sg15
I00
sg112
g306
sg115
g405
sg114
g78
sbsg35
g985
sg945
g0
(g108
g2
Ntp4578
Rp4579
(dp4580
g14
I00
sg32
I00
sg15
I00
sg112
g306
sg115
g362
sg114
g78
sbsbag3259
ag0
(g171
g2
Ntp4581
Rp4582
(dp4583
g11
(lp4584
g933
ag934
ag935
ag936
ag937
ag938
ag939
ag940
ag941
ag942
ag943
ag944
ag945
asg14
I00
sg933
g0
(g108
g2
Ntp4585
Rp4586
(dp4587
g14
I00
sg32
I00
sg15
I00
sg112
g306
sg115
g949
sg114
g78
sbsg15
I00
sg934
g0
(g108
g2
Ntp4588
Rp4589
(dp4590
g14
I00
sg32
I00
sg15
I00
sg112
g306
sg115
g307
sg114
g78
sbsg935
g0
(g66
g2
Ntp4591
Rp4592
(dp4593
g14
I00
sg32
I00
sg64
I1
sg15
I00
sbsg936
g0
(g117
g2
Ntp4594
Rp4595
(dp4596
g14
I00
sg32
I00
sg64
F2.4
sg15
I00
sbsg17
g823
sg937
g0
(g117
g2
Ntp4597
Rp4598
(dp4599
g14
I00
sg32
I00
sg64
F-2.4
sg15
I00
sbsg938
g0
(g117
g2
Ntp4600
Rp4601
(dp4602
g14
I00
sg32
I00
sg64
I15
sg15
I00
sbsg939
g0
(g108
g2
Ntp4603
Rp4604
(dp4605
g14
I00
sg32
I00
sg15
I00
sg112
g282
sg115
g283
sg114
g78
sbsg940
g0
(g117
g2
Ntp4606
Rp4607
(dp4608
g14
I00
sg32
I00
sg64
I-15
sg15
I00
sbsg16
I122
sg941
g0
(g971
g20
(lp4609
I2
aI2
aI2
aI2
aI2
aI2
aI-2
atp4610
Rp4611
(dp4612
g14
I00
sg32
I00
sg15
I00
sbsg942
g0
(g108
g2
Ntp4613
Rp4614
(dp4615
g14
I00
sg32
I00
sg15
I00
sg112
g306
sg115
g335
sg114
g78
sbsg34
S'QWSC222222_2'
p4616
sg943
g0
(g66
g2
Ntp4617
Rp4618
(dp4619
g14
I00
sg32
I00
sg64
I100
sg15
I00
sbsg944
g0
(g108
g2
Ntp4620
Rp4621
(dp4622
g14
I00
sg32
I00
sg15
I00
sg112
g306
sg115
g405
sg114
g78
sbsg35
g985
sg945
g0
(g108
g2
Ntp4623
Rp4624
(dp4625
g14
I00
sg32
I00
sg15
I00
sg112
g306
sg115
g362
sg114
g78
sbsbag1741
ag0
(g171
g2
Ntp4626
Rp4627
(dp4628
g11
(lp4629
g933
ag934
ag935
ag936
ag937
ag938
ag939
ag940
ag941
ag942
ag943
ag944
ag945
asg14
I00
sg933
g0
(g108
g2
Ntp4630
Rp4631
(dp4632
g14
I00
sg32
I00
sg15
I00
sg112
g306
sg115
g949
sg114
g78
sbsg15
I00
sg934
g0
(g108
g2
Ntp4633
Rp4634
(dp4635
g14
I00
sg32
I00
sg15
I00
sg112
g306
sg115
g307
sg114
g78
sbsg935
g0
(g66
g2
Ntp4636
Rp4637
(dp4638
g14
I00
sg32
I00
sg64
I1
sg15
I00
sbsg936
g0
(g117
g2
Ntp4639
Rp4640
(dp4641
g14
I00
sg32
I00
sg64
F2.4
sg15
I00
sbsg17
g823
sg937
g0
(g117
g2
Ntp4642
Rp4643
(dp4644
g14
I00
sg32
I00
sg64
F-2.4
sg15
I00
sbsg938
g0
(g117
g2
Ntp4645
Rp4646
(dp4647
g14
I00
sg32
I00
sg64
I15
sg15
I00
sbsg939
g0
(g108
g2
Ntp4648
Rp4649
(dp4650
g14
I00
sg32
I00
sg15
I00
sg112
g282
sg115
g283
sg114
g78
sbsg940
g0
(g117
g2
Ntp4651
Rp4652
(dp4653
g14
I00
sg32
I00
sg64
I-15
sg15
I00
sbsg16
I124
sg941
g0
(g971
g20
(lp4654
I2
aI2
aI2
aI2
aI-2
aI-2
aI-2
atp4655
Rp4656
(dp4657
g14
I00
sg32
I00
sg15
I00
sbsg942
g0
(g108
g2
Ntp4658
Rp4659
(dp4660
g14
I00
sg32
I00
sg15
I00
sg112
g306
sg115
g335
sg114
g78
sbsg34
S'QWSC2222_2_2_2'
p4661
sg943
g0
(g66
g2
Ntp4662
Rp4663
(dp4664
g14
I00
sg32
I00
sg64
I100
sg15
I00
sbsg944
g0
(g108
g2
Ntp4665
Rp4666
(dp4667
g14
I00
sg32
I00
sg15
I00
sg112
g306
sg115
g405
sg114
g78
sbsg35
g985
sg945
g0
(g108
g2
Ntp4668
Rp4669
(dp4670
g14
I00
sg32
I00
sg15
I00
sg112
g306
sg115
g362
sg114
g78
sbsbag0
(g171
g2
Ntp4671
Rp4672
(dp4673
g11
(lp4674
g933
ag934
ag935
ag936
ag937
ag938
ag939
ag940
ag941
ag942
ag943
ag944
ag945
asg14
I00
sg933
g0
(g108
g2
Ntp4675
Rp4676
(dp4677
g14
I00
sg32
I00
sg15
I00
sg112
g306
sg115
g949
sg114
g78
sbsg15
I00
sg934
g0
(g108
g2
Ntp4678
Rp4679
(dp4680
g14
I00
sg32
I00
sg15
I00
sg112
g306
sg115
g307
sg114
g78
sbsg935
g0
(g66
g2
Ntp4681
Rp4682
(dp4683
g14
I00
sg32
I00
sg64
I1
sg15
I00
sbsg936
g0
(g117
g2
Ntp4684
Rp4685
(dp4686
g14
I00
sg32
I00
sg64
F2.4
sg15
I00
sbsg17
g823
sg937
g0
(g117
g2
Ntp4687
Rp4688
(dp4689
g14
I00
sg32
I00
sg64
F-2.4
sg15
I00
sbsg938
g0
(g117
g2
Ntp4690
Rp4691
(dp4692
g14
I00
sg32
I00
sg64
I15
sg15
I00
sbsg939
g0
(g108
g2
Ntp4693
Rp4694
(dp4695
g14
I00
sg32
I00
sg15
I00
sg112
g282
sg115
g283
sg114
g78
sbsg940
g0
(g117
g2
Ntp4696
Rp4697
(dp4698
g14
I00
sg32
I00
sg64
I-15
sg15
I00
sbsg16
I126
sg941
g0
(g971
g20
(lp4699
I3
aI3
aI3
aI3
aI3
aI3
aI3
atp4700
Rp4701
(dp4702
g14
I00
sg32
I00
sg15
I00
sbsg942
g0
(g108
g2
Ntp4703
Rp4704
(dp4705
g14
I00
sg32
I00
sg15
I00
sg112
g306
sg115
g335
sg114
g78
sbsg34
S'QWSC3333333'
p4706
sg943
g0
(g66
g2
Ntp4707
Rp4708
(dp4709
g14
I00
sg32
I00
sg64
I100
sg15
I00
sbsg944
g0
(g108
g2
Ntp4710
Rp4711
(dp4712
g14
I00
sg32
I00
sg15
I00
sg112
g306
sg115
g405
sg114
g78
sbsg35
g985
sg945
g0
(g108
g2
Ntp4713
Rp4714
(dp4715
g14
I00
sg32
I00
sg15
I00
sg112
g306
sg115
g362
sg114
g78
sbsbag2627
ag2582
ag1786
ag0
(g171
g2
Ntp4716
Rp4717
(dp4718
g11
(lp4719
g933
ag934
ag935
ag936
ag937
ag938
ag939
ag940
ag941
ag942
ag943
ag944
ag945
asg14
I00
sg933
g0
(g108
g2
Ntp4720
Rp4721
(dp4722
g14
I00
sg32
I00
sg15
I00
sg112
g306
sg115
g949
sg114
g78
sbsg15
I00
sg934
g0
(g108
g2
Ntp4723
Rp4724
(dp4725
g14
I00
sg32
I00
sg15
I00
sg112
g306
sg115
g307
sg114
g78
sbsg935
g0
(g66
g2
Ntp4726
Rp4727
(dp4728
g14
I00
sg32
I00
sg64
I1
sg15
I00
sbsg936
g0
(g117
g2
Ntp4729
Rp4730
(dp4731
g14
I00
sg32
I00
sg64
F2.4
sg15
I00
sbsg17
g823
sg937
g0
(g117
g2
Ntp4732
Rp4733
(dp4734
g14
I00
sg32
I00
sg64
F-2.4
sg15
I00
sbsg938
g0
(g117
g2
Ntp4735
Rp4736
(dp4737
g14
I00
sg32
I00
sg64
I15
sg15
I00
sbsg939
g0
(g108
g2
Ntp4738
Rp4739
(dp4740
g14
I00
sg32
I00
sg15
I00
sg112
g282
sg115
g283
sg114
g78
sbsg940
g0
(g117
g2
Ntp4741
Rp4742
(dp4743
g14
I00
sg32
I00
sg64
I-15
sg15
I00
sbsg16
I131
sg941
g0
(g971
g20
(lp4744
I4
aI4
aI4
aI4
aI4
aI4
aI4
atp4745
Rp4746
(dp4747
g14
I00
sg32
I00
sg15
I00
sbsg942
g0
(g108
g2
Ntp4748
Rp4749
(dp4750
g14
I00
sg32
I00
sg15
I00
sg112
g306
sg115
g335
sg114
g78
sbsg34
S'QWSC4444444'
p4751
sg943
g0
(g66
g2
Ntp4752
Rp4753
(dp4754
g14
I00
sg32
I00
sg64
I100
sg15
I00
sbsg944
g0
(g108
g2
Ntp4755
Rp4756
(dp4757
g14
I00
sg32
I00
sg15
I00
sg112
g306
sg115
g405
sg114
g78
sbsg35
g985
sg945
g0
(g108
g2
Ntp4758
Rp4759
(dp4760
g14
I00
sg32
I00
sg15
I00
sg112
g306
sg115
g362
sg114
g78
sbsbag0
(g171
g2
Ntp4761
Rp4762
(dp4763
g11
(lp4764
g933
ag934
ag935
ag936
ag937
ag938
ag939
ag940
ag941
ag942
ag943
ag944
ag945
asg14
I00
sg933
g0
(g108
g2
Ntp4765
Rp4766
(dp4767
g14
I00
sg32
I00
sg15
I00
sg112
g306
sg115
g949
sg114
g78
sbsg15
I00
sg934
g0
(g108
g2
Ntp4768
Rp4769
(dp4770
g14
I00
sg32
I00
sg15
I00
sg112
g306
sg115
g307
sg114
g78
sbsg935
g0
(g66
g2
Ntp4771
Rp4772
(dp4773
g14
I00
sg32
I00
sg64
I1
sg15
I00
sbsg936
g0
(g117
g2
Ntp4774
Rp4775
(dp4776
g14
I00
sg32
I00
sg64
F2.4
sg15
I00
sbsg17
g823
sg937
g0
(g117
g2
Ntp4777
Rp4778
(dp4779
g14
I00
sg32
I00
sg64
F-2.4
sg15
I00
sbsg938
g0
(g117
g2
Ntp4780
Rp4781
(dp4782
g14
I00
sg32
I00
sg64
I15
sg15
I00
sbsg939
g0
(g108
g2
Ntp4783
Rp4784
(dp4785
g14
I00
sg32
I00
sg15
I00
sg112
g282
sg115
g283
sg114
g78
sbsg940
g0
(g117
g2
Ntp4786
Rp4787
(dp4788
g14
I00
sg32
I00
sg64
I-15
sg15
I00
sbsg16
I132
sg941
g0
(g971
g20
(lp4789
I4
aI4
aI4
aI4
aI4
aI4
aI-4
atp4790
Rp4791
(dp4792
g14
I00
sg32
I00
sg15
I00
sbsg942
g0
(g108
g2
Ntp4793
Rp4794
(dp4795
g14
I00
sg32
I00
sg15
I00
sg112
g306
sg115
g335
sg114
g78
sbsg34
S'QWSC444444_4'
p4796
sg943
g0
(g66
g2
Ntp4797
Rp4798
(dp4799
g14
I00
sg32
I00
sg64
I100
sg15
I00
sbsg944
g0
(g108
g2
Ntp4800
Rp4801
(dp4802
g14
I00
sg32
I00
sg15
I00
sg112
g306
sg115
g405
sg114
g78
sbsg35
g985
sg945
g0
(g108
g2
Ntp4803
Rp4804
(dp4805
g14
I00
sg32
I00
sg15
I00
sg112
g306
sg115
g362
sg114
g78
sbsbag2321
ag3314
ag0
(g171
g2
Ntp4806
Rp4807
(dp4808
g11
(lp4809
g933
ag934
ag935
ag936
ag937
ag938
ag939
ag940
ag941
ag942
ag943
ag944
ag945
asg14
I00
sg933
g0
(g108
g2
Ntp4810
Rp4811
(dp4812
g14
I00
sg32
I00
sg15
I00
sg112
g306
sg115
g949
sg114
g78
sbsg15
I00
sg934
g0
(g108
g2
Ntp4813
Rp4814
(dp4815
g14
I00
sg32
I00
sg15
I00
sg112
g306
sg115
g307
sg114
g78
sbsg935
g0
(g66
g2
Ntp4816
Rp4817
(dp4818
g14
I00
sg32
I00
sg64
I1
sg15
I00
sbsg936
g0
(g117
g2
Ntp4819
Rp4820
(dp4821
g14
I00
sg32
I00
sg64
F2.4
sg15
I00
sbsg17
g823
sg937
g0
(g117
g2
Ntp4822
Rp4823
(dp4824
g14
I00
sg32
I00
sg64
F-2.4
sg15
I00
sbsg938
g0
(g117
g2
Ntp4825
Rp4826
(dp4827
g14
I00
sg32
I00
sg64
I15
sg15
I00
sbsg939
g0
(g108
g2
Ntp4828
Rp4829
(dp4830
g14
I00
sg32
I00
sg15
I00
sg112
g282
sg115
g283
sg114
g78
sbsg940
g0
(g117
g2
Ntp4831
Rp4832
(dp4833
g14
I00
sg32
I00
sg64
I-15
sg15
I00
sbsg16
I137
sg941
g0
(g971
g20
(lp4834
I2
aI2
aI2
aI2
aI2
aI2
aI2
aI2
atp4835
Rp4836
(dp4837
g14
I00
sg32
I00
sg15
I00
sbsg942
g0
(g108
g2
Ntp4838
Rp4839
(dp4840
g14
I00
sg32
I00
sg15
I00
sg112
g306
sg115
g335
sg114
g78
sbsg34
S'QWSC22222222'
p4841
sg943
g0
(g66
g2
Ntp4842
Rp4843
(dp4844
g14
I00
sg32
I00
sg64
I100
sg15
I00
sbsg944
g0
(g108
g2
Ntp4845
Rp4846
(dp4847
g14
I00
sg32
I00
sg15
I00
sg112
g306
sg115
g405
sg114
g78
sbsg35
g985
sg945
g0
(g108
g2
Ntp4848
Rp4849
(dp4850
g14
I00
sg32
I00
sg15
I00
sg112
g306
sg115
g362
sg114
g78
sbsbag0
(g171
g2
Ntp4851
Rp4852
(dp4853
g11
(lp4854
g933
ag934
ag935
ag936
ag937
ag938
ag939
ag940
ag941
ag942
ag943
ag944
ag945
asg14
I00
sg933
g0
(g108
g2
Ntp4855
Rp4856
(dp4857
g14
I00
sg32
I00
sg15
I00
sg112
g306
sg115
g949
sg114
g78
sbsg15
I00
sg934
g0
(g108
g2
Ntp4858
Rp4859
(dp4860
g14
I00
sg32
I00
sg15
I00
sg112
g306
sg115
g307
sg114
g78
sbsg935
g0
(g66
g2
Ntp4861
Rp4862
(dp4863
g14
I00
sg32
I00
sg64
I1
sg15
I00
sbsg936
g0
(g117
g2
Ntp4864
Rp4865
(dp4866
g14
I00
sg32
I00
sg64
F2.4
sg15
I00
sbsg17
g823
sg937
g0
(g117
g2
Ntp4867
Rp4868
(dp4869
g14
I00
sg32
I00
sg64
F-2.4
sg15
I00
sbsg938
g0
(g117
g2
Ntp4870
Rp4871
(dp4872
g14
I00
sg32
I00
sg64
I15
sg15
I00
sbsg939
g0
(g108
g2
Ntp4873
Rp4874
(dp4875
g14
I00
sg32
I00
sg15
I00
sg112
g282
sg115
g283
sg114
g78
sbsg940
g0
(g117
g2
Ntp4876
Rp4877
(dp4878
g14
I00
sg32
I00
sg64
I-15
sg15
I00
sbsg16
I138
sg941
g0
(g971
g20
(lp4879
I2
aI2
aI2
aI2
aI2
aI2
aI2
aI-2
atp4880
Rp4881
(dp4882
g14
I00
sg32
I00
sg15
I00
sbsg942
g0
(g108
g2
Ntp4883
Rp4884
(dp4885
g14
I00
sg32
I00
sg15
I00
sg112
g306
sg115
g335
sg114
g78
sbsg34
S'QWSC2222222_2'
p4886
sg943
g0
(g66
g2
Ntp4887
Rp4888
(dp4889
g14
I00
sg32
I00
sg64
I100
sg15
I00
sbsg944
g0
(g108
g2
Ntp4890
Rp4891
(dp4892
g14
I00
sg32
I00
sg15
I00
sg112
g306
sg115
g405
sg114
g78
sbsg35
g985
sg945
g0
(g108
g2
Ntp4893
Rp4894
(dp4895
g14
I00
sg32
I00
sg15
I00
sg112
g306
sg115
g362
sg114
g78
sbsbag3359
ag1352
ag0
(g171
g2
Ntp4896
Rp4897
(dp4898
g11
(lp4899
g933
ag934
ag935
ag936
ag937
ag938
ag939
ag940
ag941
ag942
ag943
ag944
ag945
asg14
I00
sg933
g0
(g108
g2
Ntp4900
Rp4901
(dp4902
g14
I00
sg32
I00
sg15
I00
sg112
g306
sg115
g949
sg114
g78
sbsg15
I00
sg934
g0
(g108
g2
Ntp4903
Rp4904
(dp4905
g14
I00
sg32
I00
sg15
I00
sg112
g306
sg115
g307
sg114
g78
sbsg935
g0
(g66
g2
Ntp4906
Rp4907
(dp4908
g14
I00
sg32
I00
sg64
I1
sg15
I00
sbsg936
g0
(g117
g2
Ntp4909
Rp4910
(dp4911
g14
I00
sg32
I00
sg64
F2.4
sg15
I00
sbsg17
g823
sg937
g0
(g117
g2
Ntp4912
Rp4913
(dp4914
g14
I00
sg32
I00
sg64
F-2.4
sg15
I00
sbsg938
g0
(g117
g2
Ntp4915
Rp4916
(dp4917
g14
I00
sg32
I00
sg64
I15
sg15
I00
sbsg939
g0
(g108
g2
Ntp4918
Rp4919
(dp4920
g14
I00
sg32
I00
sg15
I00
sg112
g282
sg115
g283
sg114
g78
sbsg940
g0
(g117
g2
Ntp4921
Rp4922
(dp4923
g14
I00
sg32
I00
sg64
I-15
sg15
I00
sbsg16
I141
sg941
g0
(g971
g20
(lp4924
I2
aI2
aI2
aI2
aI-2
aI-2
aI-2
aI-2
atp4925
Rp4926
(dp4927
g14
I00
sg32
I00
sg15
I00
sbsg942
g0
(g108
g2
Ntp4928
Rp4929
(dp4930
g14
I00
sg32
I00
sg15
I00
sg112
g306
sg115
g335
sg114
g78
sbsg34
S'QWSC2222_2_2_2_2'
p4931
sg943
g0
(g66
g2
Ntp4932
Rp4933
(dp4934
g14
I00
sg32
I00
sg64
I100
sg15
I00
sbsg944
g0
(g108
g2
Ntp4935
Rp4936
(dp4937
g14
I00
sg32
I00
sg15
I00
sg112
g306
sg115
g405
sg114
g78
sbsg35
g985
sg945
g0
(g108
g2
Ntp4938
Rp4939
(dp4940
g14
I00
sg32
I00
sg15
I00
sg112
g306
sg115
g362
sg114
g78
sbsbag0
(g171
g2
Ntp4941
Rp4942
(dp4943
g11
(lp4944
g933
ag934
ag935
ag936
ag937
ag938
ag939
ag940
ag941
ag942
ag943
ag944
ag945
asg14
I00
sg933
g0
(g108
g2
Ntp4945
Rp4946
(dp4947
g14
I00
sg32
I00
sg15
I00
sg112
g306
sg115
g949
sg114
g78
sbsg15
I00
sg934
g0
(g108
g2
Ntp4948
Rp4949
(dp4950
g14
I00
sg32
I00
sg15
I00
sg112
g306
sg115
g307
sg114
g78
sbsg935
g0
(g66
g2
Ntp4951
Rp4952
(dp4953
g14
I00
sg32
I00
sg64
I1
sg15
I00
sbsg936
g0
(g117
g2
Ntp4954
Rp4955
(dp4956
g14
I00
sg32
I00
sg64
F2.4
sg15
I00
sbsg17
g823
sg937
g0
(g117
g2
Ntp4957
Rp4958
(dp4959
g14
I00
sg32
I00
sg64
F-2.4
sg15
I00
sbsg938
g0
(g117
g2
Ntp4960
Rp4961
(dp4962
g14
I00
sg32
I00
sg64
I15
sg15
I00
sbsg939
g0
(g108
g2
Ntp4963
Rp4964
(dp4965
g14
I00
sg32
I00
sg15
I00
sg112
g282
sg115
g283
sg114
g78
sbsg940
g0
(g117
g2
Ntp4966
Rp4967
(dp4968
g14
I00
sg32
I00
sg64
I-15
sg15
I00
sbsg16
I143
sg941
g0
(g971
g20
(lp4969
I3
aI3
aI3
aI3
aI3
aI3
aI3
aI3
atp4970
Rp4971
(dp4972
g14
I00
sg32
I00
sg15
I00
sbsg942
g0
(g108
g2
Ntp4973
Rp4974
(dp4975
g14
I00
sg32
I00
sg15
I00
sg112
g306
sg115
g335
sg114
g78
sbsg34
S'QWSC33333333'
p4976
sg943
g0
(g66
g2
Ntp4977
Rp4978
(dp4979
g14
I00
sg32
I00
sg64
I100
sg15
I00
sbsg944
g0
(g108
g2
Ntp4980
Rp4981
(dp4982
g14
I00
sg32
I00
sg15
I00
sg112
g306
sg115
g405
sg114
g78
sbsg35
g985
sg945
g0
(g108
g2
Ntp4983
Rp4984
(dp4985
g14
I00
sg32
I00
sg15
I00
sg112
g306
sg115
g362
sg114
g78
sbsbag0
(g171
g2
Ntp4986
Rp4987
(dp4988
g11
(lp4989
g933
ag934
ag935
ag936
ag937
ag938
ag939
ag940
ag941
ag942
ag943
ag944
ag945
asg14
I00
sg933
g0
(g108
g2
Ntp4990
Rp4991
(dp4992
g14
I00
sg32
I00
sg15
I00
sg112
g306
sg115
g949
sg114
g78
sbsg15
I00
sg934
g0
(g108
g2
Ntp4993
Rp4994
(dp4995
g14
I00
sg32
I00
sg15
I00
sg112
g306
sg115
g307
sg114
g78
sbsg935
g0
(g66
g2
Ntp4996
Rp4997
(dp4998
g14
I00
sg32
I00
sg64
I1
sg15
I00
sbsg936
g0
(g117
g2
Ntp4999
Rp5000
(dp5001
g14
I00
sg32
I00
sg64
F2.4
sg15
I00
sbsg17
g823
sg937
g0
(g117
g2
Ntp5002
Rp5003
(dp5004
g14
I00
sg32
I00
sg64
F-2.4
sg15
I00
sbsg938
g0
(g117
g2
Ntp5005
Rp5006
(dp5007
g14
I00
sg32
I00
sg64
I15
sg15
I00
sbsg939
g0
(g108
g2
Ntp5008
Rp5009
(dp5010
g14
I00
sg32
I00
sg15
I00
sg112
g282
sg115
g283
sg114
g78
sbsg940
g0
(g117
g2
Ntp5011
Rp5012
(dp5013
g14
I00
sg32
I00
sg64
I-15
sg15
I00
sbsg16
I144
sg941
g0
(g971
g20
(lp5014
I3
aI3
aI3
aI3
aI3
aI3
aI3
aI-3
atp5015
Rp5016
(dp5017
g14
I00
sg32
I00
sg15
I00
sbsg942
g0
(g108
g2
Ntp5018
Rp5019
(dp5020
g14
I00
sg32
I00
sg15
I00
sg112
g306
sg115
g335
sg114
g78
sbsg34
S'QWSC3333333_3'
p5021
sg943
g0
(g66
g2
Ntp5022
Rp5023
(dp5024
g14
I00
sg32
I00
sg64
I100
sg15
I00
sbsg944
g0
(g108
g2
Ntp5025
Rp5026
(dp5027
g14
I00
sg32
I00
sg15
I00
sg112
g306
sg115
g405
sg114
g78
sbsg35
g985
sg945
g0
(g108
g2
Ntp5028
Rp5029
(dp5030
g14
I00
sg32
I00
sg15
I00
sg112
g306
sg115
g362
sg114
g78
sbsbag0
(g171
g2
Ntp5031
Rp5032
(dp5033
g11
(lp5034
g933
ag934
ag935
ag936
ag937
ag938
ag939
ag940
ag941
ag942
ag943
ag944
ag945
asg14
I00
sg933
g0
(g108
g2
Ntp5035
Rp5036
(dp5037
g14
I00
sg32
I00
sg15
I00
sg112
g306
sg115
g949
sg114
g78
sbsg15
I00
sg934
g0
(g108
g2
Ntp5038
Rp5039
(dp5040
g14
I00
sg32
I00
sg15
I00
sg112
g306
sg115
g307
sg114
g78
sbsg935
g0
(g66
g2
Ntp5041
Rp5042
(dp5043
g14
I00
sg32
I00
sg64
I1
sg15
I00
sbsg936
g0
(g117
g2
Ntp5044
Rp5045
(dp5046
g14
I00
sg32
I00
sg64
F2.4
sg15
I00
sbsg17
g823
sg937
g0
(g117
g2
Ntp5047
Rp5048
(dp5049
g14
I00
sg32
I00
sg64
F-2.4
sg15
I00
sbsg938
g0
(g117
g2
Ntp5050
Rp5051
(dp5052
g14
I00
sg32
I00
sg64
I15
sg15
I00
sbsg939
g0
(g108
g2
Ntp5053
Rp5054
(dp5055
g14
I00
sg32
I00
sg15
I00
sg112
g282
sg115
g283
sg114
g78
sbsg940
g0
(g117
g2
Ntp5056
Rp5057
(dp5058
g14
I00
sg32
I00
sg64
I-15
sg15
I00
sbsg16
I145
sg941
g0
(g971
g20
(lp5059
I3
aI3
aI3
aI3
aI3
aI3
aI-3
aI-3
atp5060
Rp5061
(dp5062
g14
I00
sg32
I00
sg15
I00
sbsg942
g0
(g108
g2
Ntp5063
Rp5064
(dp5065
g14
I00
sg32
I00
sg15
I00
sg112
g306
sg115
g335
sg114
g78
sbsg34
S'QWSC333333_3_3'
p5066
sg943
g0
(g66
g2
Ntp5067
Rp5068
(dp5069
g14
I00
sg32
I00
sg64
I100
sg15
I00
sbsg944
g0
(g108
g2
Ntp5070
Rp5071
(dp5072
g14
I00
sg32
I00
sg15
I00
sg112
g306
sg115
g405
sg114
g78
sbsg35
g985
sg945
g0
(g108
g2
Ntp5073
Rp5074
(dp5075
g14
I00
sg32
I00
sg15
I00
sg112
g306
sg115
g362
sg114
g78
sbsbag1054
ag1261
ag2524
ag0
(g171
g2
Ntp5076
Rp5077
(dp5078
g11
(lp5079
g933
ag934
ag935
ag936
ag937
ag938
ag939
ag940
ag941
ag942
ag943
ag944
ag945
asg14
I00
sg933
g0
(g108
g2
Ntp5080
Rp5081
(dp5082
g14
I00
sg32
I00
sg15
I00
sg112
g306
sg115
g949
sg114
g78
sbsg15
I00
sg934
g0
(g108
g2
Ntp5083
Rp5084
(dp5085
g14
I00
sg32
I00
sg15
I00
sg112
g306
sg115
g307
sg114
g78
sbsg935
g0
(g66
g2
Ntp5086
Rp5087
(dp5088
g14
I00
sg32
I00
sg64
I1
sg15
I00
sbsg936
g0
(g117
g2
Ntp5089
Rp5090
(dp5091
g14
I00
sg32
I00
sg64
F2.4
sg15
I00
sbsg17
g823
sg937
g0
(g117
g2
Ntp5092
Rp5093
(dp5094
g14
I00
sg32
I00
sg64
F-2.4
sg15
I00
sbsg938
g0
(g117
g2
Ntp5095
Rp5096
(dp5097
g14
I00
sg32
I00
sg64
I15
sg15
I00
sbsg939
g0
(g108
g2
Ntp5098
Rp5099
(dp5100
g14
I00
sg32
I00
sg15
I00
sg112
g282
sg115
g283
sg114
g78
sbsg940
g0
(g117
g2
Ntp5101
Rp5102
(dp5103
g14
I00
sg32
I00
sg64
I-15
sg15
I00
sbsg16
I150
sg941
g0
(g971
g20
(lp5104
I4
aI4
aI4
aI4
aI4
aI4
aI4
aI-4
atp5105
Rp5106
(dp5107
g14
I00
sg32
I00
sg15
I00
sbsg942
g0
(g108
g2
Ntp5108
Rp5109
(dp5110
g14
I00
sg32
I00
sg15
I00
sg112
g306
sg115
g335
sg114
g78
sbsg34
S'QWSC4444444_4'
p5111
sg943
g0
(g66
g2
Ntp5112
Rp5113
(dp5114
g14
I00
sg32
I00
sg64
I100
sg15
I00
sbsg944
g0
(g108
g2
Ntp5115
Rp5116
(dp5117
g14
I00
sg32
I00
sg15
I00
sg112
g306
sg115
g405
sg114
g78
sbsg35
g985
sg945
g0
(g108
g2
Ntp5118
Rp5119
(dp5120
g14
I00
sg32
I00
sg15
I00
sg112
g306
sg115
g362
sg114
g78
sbsbag3100
ag3447
ag0
(g171
g2
Ntp5121
Rp5122
(dp5123
g11
(lp5124
g933
ag934
ag935
ag936
ag937
ag938
ag939
ag940
ag941
ag942
ag943
ag944
ag945
asg14
I00
sg933
g0
(g108
g2
Ntp5125
Rp5126
(dp5127
g14
I00
sg32
I00
sg15
I00
sg112
g306
sg115
g949
sg114
g78
sbsg15
I00
sg934
g0
(g108
g2
Ntp5128
Rp5129
(dp5130
g14
I00
sg32
I00
sg15
I00
sg112
g306
sg115
g307
sg114
g78
sbsg935
g0
(g66
g2
Ntp5131
Rp5132
(dp5133
g14
I00
sg32
I00
sg64
I1
sg15
I00
sbsg936
g0
(g117
g2
Ntp5134
Rp5135
(dp5136
g14
I00
sg32
I00
sg64
F2.4
sg15
I00
sbsg17
g823
sg937
g0
(g117
g2
Ntp5137
Rp5138
(dp5139
g14
I00
sg32
I00
sg64
F-2.4
sg15
I00
sbsg938
g0
(g117
g2
Ntp5140
Rp5141
(dp5142
g14
I00
sg32
I00
sg64
I15
sg15
I00
sbsg939
g0
(g108
g2
Ntp5143
Rp5144
(dp5145
g14
I00
sg32
I00
sg15
I00
sg112
g282
sg115
g283
sg114
g78
sbsg940
g0
(g117
g2
Ntp5146
Rp5147
(dp5148
g14
I00
sg32
I00
sg64
I-15
sg15
I00
sbsg16
I153
sg941
g0
(g971
g20
(lp5149
I4
aI4
aI4
aI4
aI-4
aI-4
aI-4
aI-4
atp5150
Rp5151
(dp5152
g14
I00
sg32
I00
sg15
I00
sbsg942
g0
(g108
g2
Ntp5153
Rp5154
(dp5155
g14
I00
sg32
I00
sg15
I00
sg112
g306
sg115
g335
sg114
g78
sbsg34
S'QWSC4444_4_4_4_4'
p5156
sg943
g0
(g66
g2
Ntp5157
Rp5158
(dp5159
g14
I00
sg32
I00
sg64
I100
sg15
I00
sbsg944
g0
(g108
g2
Ntp5160
Rp5161
(dp5162
g14
I00
sg32
I00
sg15
I00
sg112
g306
sg115
g405
sg114
g78
sbsg35
g985
sg945
g0
(g108
g2
Ntp5163
Rp5164
(dp5165
g14
I00
sg32
I00
sg15
I00
sg112
g306
sg115
g362
sg114
g78
sbsbasbsg15
I00
sg34
S'ana'
p5166
sbatp5167
Rp5168
(dp5169
g14
I00
sg32
I01
sg15
I00
sbsS'_Process__esprefers'
p5170
(dp5171
S'es_prefer_hcalHardcode'
p5172
g0
(cFWCore.ParameterSet.Modules
ESPrefer
p5173
g2
Ntp5174
Rp5175
(dp5176
g11
(lp5177
sg14
I00
sg15
I00
sS'_targetLabel'
p5178
S'es_hardcode'
p5179
sg16
I73
sg17
g18
sg34
g5172
sg35
S'HcalHardcodeCalibrations'
p5180
sbssg613
g604
sS'_Process__isStrict'
p5181
I00
sg4886
g4852
sS'l1GtTriggerMaskTechTrig'
p5182
g0
(g7
g2
Ntp5183
Rp5184
(dp5185
g11
(lp5186
S'TriggerMask'
p5187
asg14
I00
sg15
I00
sg16
I40
sg17
g18
sg5187
g0
(g3156
g20
(lp5188
I0
aI0
aI0
aI0
aI0
aI0
aI0
aI0
aI0
aI0
aI0
aI0
aI0
aI0
aI0
aI0
aI0
aI0
aI0
aI0
aI0
aI0
aI0
aI0
aI0
aI0
aI0
aI0
aI0
aI0
aI0
aI0
aI0
aI0
aI0
aI0
aI0
aI0
aI0
aI0
aI0
aI0
aI0
aI0
aI0
aI0
aI0
aI0
aI0
aI0
aI0
aI0
aI0
aI0
aI0
aI0
aI0
aI0
aI0
aI0
aI0
aI0
aI0
aI0
atp5189
Rp5190
(dp5191
g14
I00
sg32
I01
sg15
I00
sbsg34
g5182
sg35
S'L1GtTriggerMaskTechTrigTrivialProducer'
p5192
sbsS'HepPDTESSource'
p5193
g0
(g2401
g2
Ntp5194
Rp5195
(dp5196
g11
(lp5197
S'pdtFileName'
p5198
asg14
I00
sg5198
g0
(cFWCore.ParameterSet.Types
FileInPath
p5199
g2
Ntp5200
Rp5201
(dp5202
g14
I00
sg32
I01
sg64
S'SimGeneral/HepPDTESSource/data/pythiaparticle.tbl'
p5203
sg15
I00
sbsg15
I00
sg16
I4
sg17
S'/cvmfs/cms.cern.ch/slc6_amd64_gcc491/cms/cmssw-patch/CMSSW_7_5_8_patch3/python/SimGeneral/HepPDTESSource/pythiapdt_cfi.py'
p5204
sg34
g5193
sg35
g5193
sbsS'_Process__outputmodules'
p5205
(dp5206
sS'_Process__analyzers'
p5207
(dp5208
g3357
g3359
sg2899
g2901
sg348
g326
sg1203
g1205
sg406
g380
sg2944
g2946
sg4346
g4312
sg3671
g3637
sg928
g930
sg3716
g3682
sg989
g991
sg4841
g4807
sg2159
g2161
sg1052
g1054
sg4526
g4492
sg4436
g4402
sg4616
g4582
sg4661
g4627
sg4391
g4357
sg3053
g3055
sg3896
g3862
sg3257
g3259
sg4481
g4447
sg4571
g4537
sg288
g267
sg3165
g3167
sg4976
g4942
sg3581
g3547
sg1304
g1306
sg3806
g3772
sg3210
g3212
sg1158
g1160
sg3941
g3907
sg4706
g4672
sg1739
g1741
sg1784
g1786
sg464
g440
sg5156
g5122
sg320
g291
sg1829
g1831
sg5021
g4987
sg4031
g3997
sg3445
g3447
sg5111
g5077
sg2024
g2026
sg1979
g1981
sg3761
g3727
sg2069
g2071
sg1350
g1352
sg4121
g4087
sg4256
g4222
sg2319
g2321
sg2114
g2116
sg4886
g4852
sg2204
g2206
sg2249
g2251
sg4931
g4897
sg1874
g1876
sg3986
g3952
sg375
g353
sg4751
g4717
sg5066
g5032
sg4166
g4132
sg2580
g2582
sg2468
g2470
sg3536
g3502
sg4211
g4177
sg3098
g3100
sg435
g411
sg2522
g2524
sg4076
g4042
sg3312
g3314
sg4301
g4267
sg4796
g4762
sg3626
g3592
sg1097
g1099
sg214
g173
sg3851
g3817
sg1259
g1261
sg2625
g2627
ssg729
g731
sg4931
g4897
sS'idealForDigiTrackerGeometry'
p5209
g0
(g7
g2
Ntp5210
Rp5211
(dp5212
g11
(lp5213
S'appendToDataLabel'
p5214
aS'fromDDD'
p5215
ag1924
aS'alignmentsLabel'
p5216
asg14
I00
sg5214
g0
(g74
g2
Ntp5217
Rp5218
(dp5219
g14
I00
sg32
I01
sg64
S'idealForDigi'
p5220
sg15
I01
sbsg15
I01
sg5216
g0
(g74
g2
Ntp5221
Rp5222
(dp5223
g14
I00
sg32
I01
sg64
S'fakeForIdeal'
p5224
sg15
I01
sbsg17
S'/cvmfs/cms.cern.ch/slc6_amd64_gcc491/cms/cmssw-patch/CMSSW_7_5_8_patch3/python/Geometry/TrackerGeometryBuilder/idealForDigiTrackerGeometryDB_cff.py'
p5225
sg16
I8
sg34
g5209
sg5215
g0
(g60
g2
Ntp5226
Rp5227
(dp5228
g14
I00
sg32
I01
sg64
I00
sg15
I00
sbsg1924
g0
(g60
g2
Ntp5229
Rp5230
(dp5231
g14
I00
sg32
I01
sg64
I00
sg15
I01
sbsg35
S'TrackerDigiGeometryESModule'
p5232
sbsg885
g887
sg4751
g4717
sg5066
g5032
sg4121
g4087
sg893
g895
sS'_Process__looper'
p5233
Nsg3536
g3502
sg632
g623
sS'_Process__paths'
p5234
g0
(g2514
g2515
(dp5235
g5166
g3495
stp5236
Rp5237
(dp5238
g2520
(lp5239
g5166
asbsg4076
g4042
sg4796
g4762
sg824
g809
sS'MuonNumberingInitialization'
p5240
g0
(g7
g2
Ntp5241
Rp5242
(dp5243
g11
(lp5244
sg14
I00
sg15
I00
sg16
I40
sg17
g18
sg34
g5240
sg35
g5240
sbsg675
g658
sS'options'
p5245
g0
(g1400
g2
Ntp5246
Rp5247
(dp5248
g14
I00
sg32
I00
sg15
I00
sS'Rethrow'
p5249
g0
(g19
g20
(lp5250
S'ProductNotFound'
p5251
atp5252
Rp5253
(dp5254
g14
I00
sg32
I00
sg15
I00
sg33
I1
sbsg11
(lp5255
g5249
asg34
g5245
sbsg4841
g4807
sg143
g128
sg4346
g4312
sg3716
g3682
sS'DTGeometryESModule'
p5256
g0
(g7
g2
Ntp5257
Rp5258
(dp5259
g11
(lp5260
g5214
ag5215
ag1924
ag5216
asg14
I00
sg5214
g0
(g74
g2
Ntp5261
Rp5262
(dp5263
g14
I00
sg32
I01
sg64
g78
sg15
I00
sbsg15
I00
sg5216
g0
(g74
g2
Ntp5264
Rp5265
(dp5266
g14
I00
sg32
I01
sg64
g78
sg15
I00
sbsg17
g18
sg16
I40
sg34
g5256
sg5215
g0
(g60
g2
Ntp5267
Rp5268
(dp5269
g14
I00
sg32
I01
sg64
I00
sg15
I00
sbsg1924
g0
(g60
g2
Ntp5270
Rp5271
(dp5272
g14
I00
sg32
I01
sg64
I01
sg15
I00
sbsg35
g5256
sbsS'VolumeBasedMagneticFieldESProducer'
p5273
g0
(g7
g2
Ntp5274
Rp5275
(dp5276
g11
(lp5277
S'valueOverride'
p5278
aS'debugBuilder'
p5279
ag1148
asg14
I00
sg5278
g0
(g66
g2
Ntp5280
Rp5281
(dp5282
g14
I00
sg32
I01
sg64
I18268
sg15
I01
sbsg16
I40
sg17
g18
sg1148
g0
(g74
g2
Ntp5283
Rp5284
(dp5285
g14
I00
sg32
I00
sg64
g78
sg15
I00
sbsg5279
g0
(g60
g2
Ntp5286
Rp5287
(dp5288
g14
I00
sg32
I00
sg64
I00
sg15
I00
sbsg34
g5273
sg35
S'VolumeBasedMagneticFieldESProducerFromDB'
p5289
sg15
I01
sbsg243
g231
sS'hltLevel1GTSeed'
p5290
g0
(g126
g2
Ntp5291
Rp5292
(dp5293
g11
(lp5294
g3009
ag769
ag3010
ag3011
ag3012
ag3013
ag3014
ag3015
ag3016
ag3017
asg14
I00
sg15
I00
sg769
g0
(g60
g2
Ntp5295
Rp5296
(dp5297
g14
I00
sg32
I01
sg64
I00
sg15
I00
sbsg3009
g0
(g74
g2
Ntp5298
Rp5299
(dp5300
g14
I00
sg32
I01
sg64
g78
sg15
I00
sbsg17
S'/cvmfs/cms.cern.ch/slc6_amd64_gcc491/cms/cmssw-patch/CMSSW_7_5_8_patch3/cfipython/slc6_amd64_gcc491/HLTrigger/HLTfilters/hltLevel1GTSeed_cfi.py'
p5301
sg3010
g0
(g108
g2
Ntp5302
Rp5303
(dp5304
g14
I00
sg32
I01
sg15
I00
sg112
g3028
sg114
g78
sg115
g78
sbsg3011
g0
(g60
g2
Ntp5305
Rp5306
(dp5307
g14
I00
sg32
I01
sg64
I01
sg15
I00
sbsg3012
g0
(g60
g2
Ntp5308
Rp5309
(dp5310
g14
I00
sg32
I01
sg64
I01
sg15
I00
sbsg3013
g0
(g108
g2
Ntp5311
Rp5312
(dp5313
g14
I00
sg32
I01
sg15
I00
sg112
g3038
sg114
g78
sg115
g78
sbsg16
I13
sg3014
g0
(g108
g2
Ntp5314
Rp5315
(dp5316
g14
I00
sg32
I01
sg15
I00
sg112
g3028
sg114
g78
sg115
g78
sbsg3015
g0
(g66
g2
Ntp5317
Rp5318
(dp5319
g14
I00
sg32
I01
sg64
I3
sg15
I00
sbsg34
g5290
sg3016
g0
(g108
g2
Ntp5320
Rp5321
(dp5322
g14
I00
sg32
I01
sg15
I00
sg112
g3048
sg114
g78
sg115
g78
sbsg3017
g0
(g60
g2
Ntp5323
Rp5324
(dp5325
g14
I00
sg32
I01
sg64
I00
sg15
I00
sbsg35
g3052
sbsg4436
g4402
sS'CaloTopologyBuilder'
p5326
g0
(g7
g2
Ntp5327
Rp5328
(dp5329
g11
(lp5330
sg14
I00
sg15
I00
sg16
I40
sg17
g18
sg34
g5326
sg35
g5326
sbsg464
g440
sg4391
g4357
sS'SiStripRecHitMatcherESProducer'
p5331
g0
(g7
g2
Ntp5332
Rp5333
(dp5334
g11
(lp5335
S'PreFilter'
p5336
aS'ComponentName'
p5337
aS'NSigmaInside'
p5338
asg14
I00
sg15
I00
sg17
g18
sg5337
g0
(g74
g2
Ntp5339
Rp5340
(dp5341
g14
I00
sg32
I01
sg64
S'StandardMatcher'
p5342
sg15
I00
sbsg5336
g0
(g60
g2
Ntp5343
Rp5344
(dp5345
g14
I00
sg32
I01
sg64
I00
sg15
I00
sbsg16
I40
sg5338
g0
(g117
g2
Ntp5346
Rp5347
(dp5348
g14
I00
sg32
I01
sg64
F3.0
sg15
I00
sbsg34
g5331
sg35
g5331
sbsS'_Process__psets'
p5349
(dp5350
S'maxEvents'
p5351
g0
(g1400
g2
Ntp5352
Rp5353
(dp5354
g14
I00
sg32
I00
sg15
I00
sg11
(lp5355
S'input'
p5356
asg34
g5351
sg5356
g0
(g66
g2
Ntp5357
Rp5358
(dp5359
g14
I00
sg32
I00
sg64
I-1
sg15
I00
sbsbsg1946
g1948
sg5245
g5247
sS'CondDBSetup'
p5360
g0
(g1400
g2
Ntp5361
Rp5362
(dp5363
g14
I00
sg32
I01
sg15
I00
sg2406
g0
(g1400
g2
Ntp5364
Rp5365
(dp5366
g14
I00
sg32
I01
sg2426
g0
(g66
g2
Ntp5367
Rp5368
(dp5369
g14
I00
sg32
I00
sg64
I10
sg15
I00
sbsg2422
g0
(g74
g2
Ntp5370
Rp5371
(dp5372
g14
I00
sg32
I00
sg64
g78
sg15
I00
sbsg15
I00
sg2430
g0
(g66
g2
Ntp5373
Rp5374
(dp5375
g14
I00
sg32
I00
sg64
I10
sg15
I00
sbsg2434
g0
(g66
g2
Ntp5376
Rp5377
(dp5378
g14
I00
sg32
I00
sg64
I0
sg15
I00
sbsg2438
g0
(g60
g2
Ntp5379
Rp5380
(dp5381
g14
I00
sg32
I00
sg64
I00
sg15
I00
sbsg2442
g0
(g60
g2
Ntp5382
Rp5383
(dp5384
g14
I00
sg32
I00
sg64
I01
sg15
I00
sbsg2446
g0
(g60
g2
Ntp5385
Rp5386
(dp5387
g14
I00
sg32
I00
sg64
I00
sg15
I00
sbsg11
(lp5388
g2422
ag2446
ag2430
ag2434
ag2438
ag2442
ag2451
ag2452
ag2453
ag2426
asg2452
g0
(g66
g2
Ntp5389
Rp5390
(dp5391
g14
I00
sg32
I00
sg64
I60
sg15
I00
sbsg2453
g0
(g66
g2
Ntp5392
Rp5393
(dp5394
g14
I00
sg32
I00
sg64
I0
sg15
I00
sbsg2451
g0
(g66
g2
Ntp5395
Rp5396
(dp5397
g14
I00
sg32
I00
sg64
I60
sg15
I00
sbsbsg11
(lp5398
g2406
asg34
g5360
sbssg4571
g4537
sg258
g260
sS'_Process__essources'
p5399
(dp5400
g5193
g5195
sg5179
g0
(g2401
g2
Ntp5401
Rp5402
(dp5403
g11
(lp5404
g1946
aS'HERecalibration'
p5405
ag2407
aS'GainWidthsForTrigPrims'
p5406
aS'HEreCalibCutoff'
p5407
aS'HFRecalibration'
p5408
aS'iLumi'
p5409
ag1925
asg14
I00
sg1946
g1948
sg15
I01
sg16
I19
sg5405
g0
(g60
g2
Ntp5410
Rp5411
(dp5412
g14
I00
sg32
I01
sg64
I00
sg15
I00
sbsg1925
g0
(g1400
g2
Ntp5413
Rp5414
(dp5415
g14
I00
sg32
I01
sg15
I00
sg1929
g0
(g66
g2
Ntp5416
Rp5417
(dp5418
g14
I00
sg32
I01
sg64
I3
sg15
I00
sbsg1933
g0
(g66
g2
Ntp5419
Rp5420
(dp5421
g14
I00
sg32
I01
sg64
I2
sg15
I00
sbsg11
(lp5422
g1929
ag1933
ag1938
asg1938
g0
(g74
g2
Ntp5423
Rp5424
(dp5425
g14
I00
sg32
I01
sg64
g1942
sg15
I00
sbsbsg2407
g0
(g19
g20
(lp5426
S'GainWidths'
p5427
atp5428
Rp5429
(dp5430
g14
I00
sg32
I00
sg15
I00
sg33
I1
sbsg5406
g0
(g60
g2
Ntp5431
Rp5432
(dp5433
g14
I00
sg32
I01
sg64
I00
sg15
I00
sbsg5407
g0
(g117
g2
Ntp5434
Rp5435
(dp5436
g14
I00
sg32
I01
sg64
F20.0
sg15
I00
sbsg5408
g0
(g60
g2
Ntp5437
Rp5438
(dp5439
g14
I00
sg32
I01
sg64
I00
sg15
I00
sbsg17
S'/cvmfs/cms.cern.ch/slc6_amd64_gcc491/cms/cmssw-patch/CMSSW_7_5_8_patch3/python/CalibCalorimetry/HcalPlugins/Hcal_Conditions_forGlobalTag_cff.py'
p5440
sg34
g5179
sg5409
g0
(g117
g2
Ntp5441
Rp5442
(dp5443
g14
I00
sg32
I01
sg64
F-1.0
sg15
I00
sbsg35
g5180
sbsg3143
g3145
sS'L1GtTriggerMaskTechTrigRcdSource'
p5444
g0
(g2401
g2
Ntp5445
Rp5446
(dp5447
g11
(lp5448
g3148
ag3149
ag3150
asg14
I00
sg15
I00
sg16
I8
sg3149
g0
(g74
g2
Ntp5449
Rp5450
(dp5451
g14
I00
sg32
I01
sg64
S'L1GtTriggerMaskTechTrigRcd'
p5452
sg15
I00
sbsg17
S'/cvmfs/cms.cern.ch/slc6_amd64_gcc491/cms/cmssw-patch/CMSSW_7_5_8_patch3/python/L1TriggerConfig/L1GtConfigProducers/L1GtTriggerMaskTechTrigConfig_cff.py'
p5453
sg3150
g0
(g3156
g20
(lp5454
I1
atp5455
Rp5456
(dp5457
g14
I00
sg32
I01
sg15
I00
sbsg34
g5444
sg3148
g0
(g60
g2
Ntp5458
Rp5459
(dp5460
g14
I00
sg32
I01
sg64
I01
sg15
I00
sbsg35
g3164
sbsg2400
g2403
ssg1051
g1042
sg2297
g2299
sg3581
g3547
sg641
g643
sg5351
g5353
sS'CSCGeometryESModule'
p5461
g0
(g7
g2
Ntp5462
Rp5463
(dp5464
g11
(lp5465
g5214
aS'useDDD'
p5466
aS'debugV'
p5467
aS'useGangedStripsInME1a'
p5468
ag5216
aS'useOnlyWiresInME1a'
p5469
aS'useRealWireGeometry'
p5470
aS'useCentreTIOffsets'
p5471
ag1924
asg14
I00
sg5214
g0
(g74
g2
Ntp5472
Rp5473
(dp5474
g14
I00
sg32
I01
sg64
g78
sg15
I00
sbsg15
I00
sg5467
g0
(g60
g2
Ntp5475
Rp5476
(dp5477
g14
I00
sg32
I00
sg64
I00
sg15
I00
sbsg17
g18
sg5468
g0
(g60
g2
Ntp5478
Rp5479
(dp5480
g14
I00
sg32
I01
sg64
I01
sg15
I00
sbsg5216
g0
(g74
g2
Ntp5481
Rp5482
(dp5483
g14
I00
sg32
I01
sg64
g78
sg15
I00
sbsg5469
g0
(g60
g2
Ntp5484
Rp5485
(dp5486
g14
I00
sg32
I01
sg64
I00
sg15
I00
sbsg5466
g0
(g60
g2
Ntp5487
Rp5488
(dp5489
g14
I00
sg32
I01
sg64
I00
sg15
I00
sbsg16
I40
sg5471
g0
(g60
g2
Ntp5490
Rp5491
(dp5492
g14
I00
sg32
I01
sg64
I00
sg15
I00
sbsg34
g5461
sg5470
g0
(g60
g2
Ntp5493
Rp5494
(dp5495
g14
I00
sg32
I01
sg64
I01
sg15
I00
sbsg1924
g0
(g60
g2
Ntp5496
Rp5497
(dp5498
g14
I00
sg32
I01
sg64
I01
sg15
I00
sbsg35
g5461
sbsS'EcalBarrelGeometryFromDBEP'
p5499
g0
(g7
g2
Ntp5500
Rp5501
(dp5502
g11
(lp5503
g1924
asg14
I00
sg15
I01
sg16
I40
sg17
g18
sg34
g5499
sg1924
g0
(g60
g2
Ntp5504
Rp5505
(dp5506
g14
I00
sg32
I01
sg64
I01
sg15
I01
sbsg35
g5499
sbsS'trackerNumberingGeometryDB'
p5507
g0
(g7
g2
Ntp5508
Rp5509
(dp5510
g11
(lp5511
g5214
ag5215
asg14
I00
sg5214
g0
(g74
g2
Ntp5512
Rp5513
(dp5514
g14
I00
sg32
I01
sg64
g78
sg15
I00
sbsg15
I00
sg16
I40
sg17
g18
sg34
g5507
sg5215
g0
(g60
g2
Ntp5515
Rp5516
(dp5517
g14
I00
sg32
I01
sg64
I00
sg15
I00
sbsg35
S'TrackerGeometricDetESModule'
p5518
sbsS'_Process__name'
p5519
S'PCA'
p5520
sg320
g291
sg5179
g5402
sg4031
g3997
sS'_cloneToObjectDict'
p5521
(dp5522
I44290896
g2998
sI45011472
g4807
sI44965072
g2206
sI45012304
g4852
sI45013136
g3359
sI45013968
g1352
sI45014800
g4897
sI44856336
g0
(g7
g2
Ntp5523
Rp5524
(dp5525
g11
(lp5526
sg14
I00
sg15
I00
sg16
I40
sg17
g18
sg34
S'CastorDbProducer'
p5527
sg35
g5527
sbsI45738576
g98
sI45725136
g4987
sI44992016
g2116
sI44258896
g0
(g7
g2
Ntp5528
Rp5529
(dp5530
g11
(lp5531
g5466
aS'compatibiltyWith11'
p5532
asg14
I00
sg15
I00
sg16
I40
sg17
g18
sg5466
g0
(g60
g2
Ntp5533
Rp5534
(dp5535
g14
I00
sg32
I00
sg64
I00
sg15
I00
sbsg5532
g0
(g60
g2
Ntp5536
Rp5537
(dp5538
g14
I00
sg32
I00
sg64
I01
sg15
I00
sbsg34
S'RPCGeometryESModule'
p5539
sg35
g5539
sbsI45790928
g545
sI44291920
g3145
sI45774800
g696
sI45008912
g4762
sI44292176
g5211
sI44988624
g2946
sI45758288
g914
sI45757904
g922
sI44865872
g809
sI44804496
g0
(g7
g2
Ntp5540
Rp5541
(dp5542
g11
(lp5543
S'file'
p5544
aS'dump'
p5545
asg14
I00
sg15
I00
sg5545
g0
(g19
g20
(lp5546
g78
atp5547
Rp5548
(dp5549
g14
I00
sg32
I00
sg15
I00
sg33
I1
sbsg16
I40
sg17
g18
sg5544
g0
(g74
g2
Ntp5550
Rp5551
(dp5552
g14
I00
sg32
I00
sg64
g78
sg15
I00
sbsg34
S'hcal_db_producer'
p5553
sg35
S'HcalDbProducer'
p5554
sbsI45791696
g267
sI44259920
g5509
sI45005520
g2627
sI44976912
g3907
sI45759440
g841
sI44805264
g5402
sI45759568
g867
sI44804688
g1948
sI45002128
g4582
sI44973520
g3817
sI45735120
g3447
sI44260944
g2569
sI45739664
g231
sI45760208
g860
sI44980304
g1306
sI44214544
g2299
sI45739920
g91
sI45760464
g677
sI44965968
g3637
sI45756560
g150
sI44855696
g5333
sI45826512
g440
sI44290576
g0
(g7
g2
Ntp5555
Rp5556
(dp5557
g11
(lp5558
g1924
asg14
I00
sg15
I00
sg16
I40
sg17
g18
sg34
S'ZdcGeometryFromDBEP'
p5559
sg1924
g0
(g60
g2
Ntp5560
Rp5561
(dp5562
g14
I00
sg32
I01
sg64
I00
sg15
I00
sbsg35
g5559
sbsI45792144
g291
sI45724304
g4942
sI44991184
g4132
sI44962576
g1876
sI45736016
g5122
sI45757328
g485
sI44856464
g2366
sI45008080
g4717
sI44291216
g3304
sI44987792
g4042
sI45758096
g504
sI45790736
g523
sI44771152
g0
(g7
g2
Ntp5563
Rp5564
(dp5565
g11
(lp5566
S'version'
p5567
ag5278
ag1148
asg14
I00
sg15
I01
sg16
I40
sg17
g18
sg1148
g0
(g74
g2
Ntp5568
Rp5569
(dp5570
g14
I00
sg32
I00
sg64
S'ParabolicMf'
p5571
sg15
I01
sbsg5567
g0
(g74
g2
Ntp5572
Rp5573
(dp5574
g14
I00
sg32
I01
sg64
S'Parabolic'
p5575
sg15
I00
sbsg5278
g0
(g66
g2
Ntp5576
Rp5577
(dp5578
g14
I00
sg32
I01
sg64
I18268
sg15
I01
sbsg34
S'ParabolicParametrizedMagneticFieldProducer'
p5579
sg35
S'AutoParametrizedMagneticFieldProducer'
p5580
sbsI44840848
g0
(g7
g2
Ntp5581
Rp5582
(dp5583
g11
(lp5584
g3407
aS'LorentzAngleDeconvMode'
p5585
aS'LorentzAnglePeakMode'
p5586
asg14
I00
sg15
I00
sg16
I40
sg17
g18
sg3407
g0
(g1400
g2
Ntp5587
Rp5588
(dp5589
g14
I00
sg32
I01
sg15
I00
sg1148
g0
(g74
g2
Ntp5590
Rp5591
(dp5592
g14
I00
sg32
I00
sg64
g78
sg15
I00
sbsg2375
g0
(g74
g2
Ntp5593
Rp5594
(dp5595
g14
I00
sg32
I01
sg64
g3419
sg15
I00
sbsg11
(lp5596
g2375
ag1148
asbsg34
S'siStripLorentzAngleDepESProducer'
p5597
sg5586
g0
(g1400
g2
Ntp5598
Rp5599
(dp5600
g14
I00
sg32
I01
sg15
I00
sg1148
g0
(g74
g2
Ntp5601
Rp5602
(dp5603
g14
I00
sg32
I00
sg64
g3427
sg15
I00
sbsg2375
g0
(g74
g2
Ntp5604
Rp5605
(dp5606
g14
I00
sg32
I01
sg64
S'SiStripLorentzAngleRcd'
p5607
sg15
I00
sbsg11
(lp5608
g2375
ag1148
asbsg35
S'SiStripLorentzAngleDepESProducer'
p5609
sg5585
g0
(g1400
g2
Ntp5610
Rp5611
(dp5612
g14
I00
sg32
I01
sg15
I00
sg1148
g0
(g74
g2
Ntp5613
Rp5614
(dp5615
g14
I00
sg32
I00
sg64
g3439
sg15
I00
sbsg2375
g0
(g74
g2
Ntp5616
Rp5617
(dp5618
g14
I00
sg32
I01
sg64
g5607
sg15
I00
sbsg11
(lp5619
g2375
ag1148
asbsbsI44976080
g3862
sI45759056
g879
sI45774992
g5184
sI45828304
g643
sI44771664
g52
sI45775248
g5446
sI45828560
g802
sI45001296
g3259
sI44972688
g930
sI44772176
g41
sI44841872
g0
(g7
g2
Ntp5620
Rp5621
(dp5622
g11
(lp5623
S'ComponentType'
p5624
ag5337
aS'parameters'
p5625
asg14
I00
sg15
I00
sg5625
g0
(g1400
g2
Ntp5626
Rp5627
(dp5628
g14
I00
sg32
I01
sg15
I00
sg11
(lp5629
sbsg16
I40
sg5337
g0
(g74
g2
Ntp5630
Rp5631
(dp5632
g14
I00
sg32
I01
sg64
S'stripCPE'
p5633
sg15
I00
sbsg5624
g0
(g74
g2
Ntp5634
Rp5635
(dp5636
g14
I00
sg32
I01
sg64
S'SimpleStripCPE'
p5637
sg15
I00
sbsg17
g18
sg34
S'stripCPEESProducer'
p5638
sg35
S'StripCPEESProducer'
p5639
sbsI44260368
g0
(g7
g2
Ntp5640
Rp5641
(dp5642
g11
(lp5643
g5214
ag5215
ag1924
ag5216
asg14
I00
sg5214
g0
(g74
g2
Ntp5644
Rp5645
(dp5646
g14
I00
sg32
I01
sg64
g78
sg15
I00
sbsg15
I00
sg5216
g0
(g74
g2
Ntp5647
Rp5648
(dp5649
g14
I00
sg32
I01
sg64
g78
sg15
I00
sbsg17
g18
sg16
I40
sg34
S'trackerGeometryDB'
p5650
sg5215
g0
(g60
g2
Ntp5651
Rp5652
(dp5653
g14
I00
sg32
I01
sg64
I00
sg15
I00
sbsg1924
g0
(g60
g2
Ntp5654
Rp5655
(dp5656
g14
I00
sg32
I01
sg64
I01
sg15
I00
sbsg35
g5232
sbsI45759632
g623
sI44260624
g0
(g7
g2
Ntp5657
Rp5658
(dp5659
g11
(lp5660
sg14
I00
sg15
I00
sg16
I40
sg17
g18
sg34
S'TrackerRecoGeometryESProducer'
p5661
sg35
g5661
sbsI44803280
g5362
sI45776272
g5292
sI45003024
g1741
sI45725968
g5032
sI45773200
g746
sI44379728
g5195
sI45727632
g1261
sI44293904
g0
(g7
g2
Ntp5662
Rp5663
(dp5664
g11
(lp5665
g5214
ag5215
ag1924
ag5216
asg14
I00
sg5214
g0
(g74
g2
Ntp5666
Rp5667
(dp5668
g14
I00
sg32
I01
sg64
g5220
sg15
I01
sbsg15
I01
sg5216
g0
(g74
g2
Ntp5669
Rp5670
(dp5671
g14
I00
sg32
I01
sg64
g5224
sg15
I01
sbsg17
S'/cvmfs/cms.cern.ch/slc6_amd64_gcc491/cms/cmssw-patch/CMSSW_7_5_8_patch3/python/Geometry/DTGeometryBuilder/idealForDigiDtGeometryDB_cff.py'
p5672
sg16
I8
sg34
S'idealForDigiDTGeometry'
p5673
sg5215
g0
(g60
g2
Ntp5674
Rp5675
(dp5676
g14
I00
sg32
I01
sg64
I00
sg15
I00
sbsg1924
g0
(g60
g2
Ntp5677
Rp5678
(dp5679
g14
I00
sg32
I01
sg64
I00
sg15
I01
sbsg35
g5256
sbsI44773200
g165
sI44803536
g1036
sI44957584
g3502
sI44994512
g4267
sI45732624
g2524
sI45733456
g5077
sI45756752
g248
sI45007248
g1786
sI44978640
g3212
sI44986960
g3997
sI44770064
g5242
sI45757264
g902
sI45774288
g766
sI45003856
g4627
sI44975248
g1831
sI44979472
g1099
sI45759824
g887
sI45758032
g665
sI45793168
g353
sI45739344
g128
sI45000464
g4537
sI44971856
g1160
sI45758544
g497
sI44259536
g5258
sI45758800
g848
sI44997072
g4357
sI44968464
g3727
sI44841552
g3404
sI44971024
g3772
sI44292816
g0
(g7
g2
Ntp5680
Rp5681
(dp5682
g11
(lp5683
g5214
asg14
I00
sg5214
g0
(g74
g2
Ntp5684
Rp5685
(dp5686
g14
I00
sg32
I01
sg64
g5224
sg15
I01
sbsg15
I01
sg16
I5
sg17
S'/cvmfs/cms.cern.ch/slc6_amd64_gcc491/cms/cmssw-patch/CMSSW_7_5_8_patch3/python/Alignment/CommonAlignmentProducer/fakeForIdealAlignmentProducer_cfi.py'
p5687
sg34
S'fakeForIdealAlignment'
p5688
sg35
S'FakeAlignmentProducer'
p5689
sbsI45791760
g516
sI45759312
g597
sI45828432
g260
sI44293072
g0
(g7
g2
Ntp5690
Rp5691
(dp5692
g11
(lp5693
g5214
ag5466
ag5467
ag5468
ag5216
ag5469
ag5470
ag5471
ag1924
asg14
I00
sg5214
g0
(g74
g2
Ntp5694
Rp5695
(dp5696
g14
I00
sg32
I01
sg64
g5220
sg15
I01
sbsg15
I01
sg5467
g0
(g60
g2
Ntp5697
Rp5698
(dp5699
g14
I00
sg32
I00
sg64
I00
sg15
I00
sbsg17
S'/cvmfs/cms.cern.ch/slc6_amd64_gcc491/cms/cmssw-patch/CMSSW_7_5_8_patch3/python/Geometry/CSCGeometryBuilder/idealForDigiCscGeometryDB_cff.py'
p5700
sg5468
g0
(g60
g2
Ntp5701
Rp5702
(dp5703
g14
I00
sg32
I01
sg64
I01
sg15
I00
sbsg5216
g0
(g74
g2
Ntp5704
Rp5705
(dp5706
g14
I00
sg32
I01
sg64
g5224
sg15
I01
sbsg5469
g0
(g60
g2
Ntp5707
Rp5708
(dp5709
g14
I00
sg32
I01
sg64
I00
sg15
I00
sbsg5466
g0
(g60
g2
Ntp5710
Rp5711
(dp5712
g14
I00
sg32
I01
sg64
I00
sg15
I00
sbsg16
I8
sg5471
g0
(g60
g2
Ntp5713
Rp5714
(dp5715
g14
I00
sg32
I01
sg64
I00
sg15
I00
sbsg34
S'idealForDigiCSCGeometry'
p5716
sg5470
g0
(g60
g2
Ntp5717
Rp5718
(dp5719
g14
I00
sg32
I01
sg64
I01
sg15
I00
sbsg1924
g0
(g60
g2
Ntp5720
Rp5721
(dp5722
g14
I00
sg32
I01
sg64
I00
sg15
I01
sbsg35
g5461
sbsI44956752
g1981
sI44993680
g4222
sI44258064
g5463
sI44260560
g0
(g7
g2
Ntp5723
Rp5724
(dp5725
g11
(lp5726
sg14
I00
sg15
I00
sg16
I40
sg17
g18
sg34
S'GlobalTrackingGeometryESProducer'
p5727
sg35
g5727
sbsI44274512
g2574
sI45776464
g739
sI44770640
g5275
sI45010576
g3314
sI44981968
g991
sI45789520
g651
sI45739792
g477
sI44990288
g1205
sI44966800
g3682
sI44261328
g5328
sI45757008
g635
sI45792656
g326
sI44969296
g2161
sI45758672
g658
sI44291664
g0
(g7
g2
Ntp5728
Rp5729
(dp5730
g11
(lp5731
sg14
I00
sg15
I00
sg16
I40
sg17
g18
sg34
S'EcalElectronicsMappingBuilder'
p5732
sg35
g5732
sbsI44974416
g3055
sI44855824
g0
(g7
g2
Ntp5733
Rp5734
(dp5735
g11
(lp5736
sg14
I00
sg15
I00
sg16
I40
sg17
g18
sg34
S'sistripconn'
p5737
sg35
S'SiStripConnectivity'
p5738
sbsI45826640
g411
sI44856080
g5353
sI44999632
g4492
sI44839952
g0
(g7
g2
Ntp5739
Rp5740
(dp5741
g11
(lp5742
S'printDebug'
p5743
ag5214
aS'APVGain'
p5744
aS'AutomaticNormalization'
p5745
asg14
I00
sg5214
g0
(g74
g2
Ntp5746
Rp5747
(dp5748
g14
I00
sg32
I01
sg64
g78
sg15
I00
sbsg15
I00
sg5745
g0
(g60
g2
Ntp5749
Rp5750
(dp5751
g14
I00
sg32
I01
sg64
I00
sg15
I00
sbsg16
I40
sg5743
g0
(g60
g2
Ntp5752
Rp5753
(dp5754
g14
I00
sg32
I00
sg64
I00
sg15
I00
sbsg17
g18
sg5744
g0
(g2370
g20
(lp5755
g0
(g1400
g2
Ntp5756
Rp5757
(dp5758
g14
I00
sg32
I01
sg15
I00
sS'Label'
p5759
g0
(g74
g2
Ntp5760
Rp5761
(dp5762
g14
I00
sg32
I00
sg64
g78
sg15
I00
sbsS'Record'
p5763
g0
(g74
g2
Ntp5764
Rp5765
(dp5766
g14
I00
sg32
I01
sg64
S'SiStripApvGainRcd'
p5767
sg15
I00
sbsS'NormalizationFactor'
p5768
g0
(g117
g2
Ntp5769
Rp5770
(dp5771
g14
I00
sg32
I00
sg64
F1.0
sg15
I00
sbsg11
(lp5772
g5763
ag5768
ag5759
asbag0
(g1400
g2
Ntp5773
Rp5774
(dp5775
g14
I00
sg32
I01
sg15
I00
sg5759
g0
(g74
g2
Ntp5776
Rp5777
(dp5778
g14
I00
sg32
I00
sg64
g78
sg15
I00
sbsg5763
g0
(g74
g2
Ntp5779
Rp5780
(dp5781
g14
I00
sg32
I01
sg64
S'SiStripApvGain2Rcd'
p5782
sg15
I00
sbsg5768
g0
(g117
g2
Ntp5783
Rp5784
(dp5785
g14
I00
sg32
I00
sg64
F1.0
sg15
I00
sbsg11
(lp5786
g5763
ag5768
ag5759
asbatp5787
Rp5788
(dp5789
g14
I00
sg32
I01
sg15
I00
sg33
I1
sbsg34
S'siStripGainESProducer'
p5790
sg35
S'SiStripGainESProducer'
p5791
sbsI45827216
g380
sI44964240
g3592
sI45004688
g4672
sI44275344
g0
(g7
g2
Ntp5792
Rp5793
(dp5794
g11
(lp5795
g1924
ag1925
asg14
I00
sg15
I01
sg16
I40
sg17
g18
sg1925
g0
(g1400
g2
Ntp5796
Rp5797
(dp5798
g14
I00
sg32
I01
sg15
I00
sg1929
g0
(g66
g2
Ntp5799
Rp5800
(dp5801
g14
I00
sg32
I01
sg64
I3
sg15
I00
sbsg1933
g0
(g66
g2
Ntp5802
Rp5803
(dp5804
g14
I00
sg32
I01
sg64
I2
sg15
I00
sbsg11
(lp5805
g1929
ag1933
ag1938
asg1938
g0
(g74
g2
Ntp5806
Rp5807
(dp5808
g14
I00
sg32
I01
sg64
g1942
sg15
I00
sbsbsg34
S'HcalGeometryFromDBEP'
p5809
sg1924
g0
(g60
g2
Ntp5810
Rp5811
(dp5812
g14
I00
sg32
I01
sg64
I01
sg15
I01
sbsg35
g5809
sbsI44967632
g2251
sI44865104
g5247
sI45758864
g604
sI44995408
g4312
sI44996240
g2470
sI44274128
g9
sI44275856
g0
(g7
g2
Ntp5813
Rp5814
(dp5815
g11
(lp5816
sg14
I00
sg15
I00
sg16
I40
sg17
g18
sg34
S'HcalAlignmentEP'
p5817
sg35
g5817
sbsI45726800
g1054
sI44857616
g0
(g7
g2
Ntp5818
Rp5819
(dp5820
g11
(lp5821
g5214
aS'PrintDebugOutput'
p5822
aS'ThresholdForReducedGranularity'
p5823
aS'UseEmptyRunInfo'
p5824
aS'ReduceGranularity'
p5825
ag2369
asg14
I00
sg5214
g0
(g74
g2
Ntp5826
Rp5827
(dp5828
g14
I00
sg32
I01
sg64
g78
sg15
I00
sbsg15
I01
sg16
I40
sg17
g18
sg5823
g0
(g117
g2
Ntp5829
Rp5830
(dp5831
g14
I00
sg32
I01
sg64
F0.3
sg15
I00
sbsg34
S'siStripQualityESProducer'
p5832
sg5824
g0
(g60
g2
Ntp5833
Rp5834
(dp5835
g14
I00
sg32
I01
sg64
I00
sg15
I00
sbsg5825
g0
(g60
g2
Ntp5836
Rp5837
(dp5838
g14
I00
sg32
I01
sg64
I00
sg15
I00
sbsg2369
g0
(g2370
g20
(lp5839
g0
(g1400
g2
Ntp5840
Rp5841
(dp5842
g14
I00
sg32
I01
sg15
I00
sg2375
g0
(g74
g2
Ntp5843
Rp5844
(dp5845
g14
I00
sg32
I01
sg64
S'SiStripDetVOffRcd'
p5846
sg15
I00
sbsg2380
g0
(g74
g2
Ntp5847
Rp5848
(dp5849
g14
I00
sg32
I01
sg64
g78
sg15
I00
sbsg11
(lp5850
g2375
ag2380
asbag0
(g1400
g2
Ntp5851
Rp5852
(dp5853
g14
I00
sg32
I01
sg15
I00
sg2375
g0
(g74
g2
Ntp5854
Rp5855
(dp5856
g14
I00
sg32
I01
sg64
S'SiStripDetCablingRcd'
p5857
sg15
I00
sbsg2380
g0
(g74
g2
Ntp5858
Rp5859
(dp5860
g14
I00
sg32
I01
sg64
g78
sg15
I00
sbsg11
(lp5861
g2375
ag2380
asbag0
(g1400
g2
Ntp5862
Rp5863
(dp5864
g14
I00
sg32
I01
sg15
I00
sg2375
g0
(g74
g2
Ntp5865
Rp5866
(dp5867
g14
I00
sg32
I01
sg64
S'RunInfoRcd'
p5868
sg15
I00
sbsg2380
g0
(g74
g2
Ntp5869
Rp5870
(dp5871
g14
I00
sg32
I01
sg64
g78
sg15
I00
sbsg11
(lp5872
g2375
ag2380
asbag0
(g1400
g2
Ntp5873
Rp5874
(dp5875
g14
I00
sg32
I01
sg15
I00
sg2375
g0
(g74
g2
Ntp5876
Rp5877
(dp5878
g14
I00
sg32
I01
sg64
S'SiStripBadChannelRcd'
p5879
sg15
I00
sbsg2380
g0
(g74
g2
Ntp5880
Rp5881
(dp5882
g14
I00
sg32
I01
sg64
g78
sg15
I00
sbsg11
(lp5883
g2375
ag2380
asbag0
(g1400
g2
Ntp5884
Rp5885
(dp5886
g14
I00
sg32
I01
sg15
I00
sg2375
g0
(g74
g2
Ntp5887
Rp5888
(dp5889
g14
I00
sg32
I01
sg64
S'SiStripBadFiberRcd'
p5890
sg15
I00
sbsg2380
g0
(g74
g2
Ntp5891
Rp5892
(dp5893
g14
I00
sg32
I01
sg64
g78
sg15
I00
sbsg11
(lp5894
g2375
ag2380
asbag0
(g1400
g2
Ntp5895
Rp5896
(dp5897
g14
I00
sg32
I01
sg15
I00
sg2375
g0
(g74
g2
Ntp5898
Rp5899
(dp5900
g14
I00
sg32
I01
sg64
S'SiStripBadModuleRcd'
p5901
sg15
I00
sbsg2380
g0
(g74
g2
Ntp5902
Rp5903
(dp5904
g14
I00
sg32
I01
sg64
g78
sg15
I00
sbsg11
(lp5905
g2375
ag2380
asbag0
(g1400
g2
Ntp5906
Rp5907
(dp5908
g14
I00
sg32
I01
sg15
I00
sg2375
g0
(g74
g2
Ntp5909
Rp5910
(dp5911
g14
I00
sg32
I01
sg64
S'SiStripBadStripRcd'
p5912
sg15
I00
sbsg2380
g0
(g74
g2
Ntp5913
Rp5914
(dp5915
g14
I00
sg32
I01
sg64
g78
sg15
I00
sbsg11
(lp5916
g2375
ag2380
asbatp5917
Rp5918
(dp5919
g14
I00
sg32
I01
sg15
I00
sg33
I1
sbsg35
S'SiStripQualityESProducer'
p5920
sg5822
g0
(g60
g2
Ntp5921
Rp5922
(dp5923
g14
I00
sg32
I01
sg64
I00
sg15
I00
sbsbsI44992848
g4177
sI45734288
g3100
sI45757520
g895
sI45828688
g3495
sI44276368
g1921
sI45009744
g2321
sI44981136
g3952
sI44997904
g4402
sI44956688
g2026
sI44866192
g2071
sI44805328
g5175
sI45776400
g3006
sI44274640
g0
(g7
g2
Ntp5924
Rp5925
(dp5926
g11
(lp5927
g1924
asg14
I00
sg15
I01
sg16
I40
sg17
g18
sg34
S'EcalPreshowerGeometryFromDBEP'
p5928
sg1924
g0
(g60
g2
Ntp5929
Rp5930
(dp5931
g14
I00
sg32
I01
sg64
I01
sg15
I01
sbsg35
g5928
sbsI44260752
g0
(g7
g2
Ntp5932
Rp5933
(dp5934
g11
(lp5935
g5214
asg14
I00
sg5214
g0
(g74
g2
Ntp5936
Rp5937
(dp5938
g14
I00
sg32
I01
sg64
g78
sg15
I00
sbsg15
I00
sg16
I40
sg17
g18
sg34
S'trackerTopology'
p5939
sg35
S'TrackerTopologyEP'
p5940
sbsI44989456
g4087
sI45006352
g2582
sI44977744
g2901
sI44277392
g0
(g7
g2
Ntp5941
Rp5942
(dp5943
g11
(lp5944
S'Exclude'
p5945
ag5214
ag1925
asg14
I00
sg5214
g0
(g74
g2
Ntp5946
Rp5947
(dp5948
g14
I00
sg32
I01
sg64
g78
sg15
I00
sbsg15
I01
sg16
I5
sg17
S'/cvmfs/cms.cern.ch/slc6_amd64_gcc491/cms/cmssw-patch/CMSSW_7_5_8_patch3/python/Geometry/HcalEventSetup/HcalTopology_cfi.py'
p5949
sg1925
g0
(g1400
g2
Ntp5950
Rp5951
(dp5952
g14
I00
sg32
I01
sg15
I00
sg1929
g0
(g66
g2
Ntp5953
Rp5954
(dp5955
g14
I00
sg32
I01
sg64
I3
sg15
I00
sbsg1933
g0
(g66
g2
Ntp5956
Rp5957
(dp5958
g14
I00
sg32
I01
sg64
I2
sg15
I00
sbsg11
(lp5959
g1929
ag1933
ag1938
asg1938
g0
(g74
g2
Ntp5960
Rp5961
(dp5962
g14
I00
sg32
I01
sg64
g1942
sg15
I00
sbsbsg34
S'hcalTopologyIdeal'
p5963
sg5945
g0
(g74
g2
Ntp5964
Rp5965
(dp5966
g14
I00
sg32
I00
sg64
g78
sg15
I00
sbsg35
S'HcalTopologyIdealEP'
p5967
sbsI44773072
g173
sI45760080
g616
sI45757776
g470
sI44274768
g5501
sI44998800
g4447
sI45773328
g2306
sI44970192
g3167
sI44842000
g0
(g7
g2
Ntp5968
Rp5969
(dp5970
g11
(lp5971
g5624
ag5337
ag5625
asg14
I00
sg15
I01
sg5625
g0
(g1400
g2
Ntp5972
Rp5973
(dp5974
g14
I00
sg32
I01
sS'maxChgOneMIP'
p5975
g0
(g117
g2
Ntp5976
Rp5977
(dp5978
g14
I00
sg32
I01
sg64
F6000.0
sg15
I00
sbsS'mLC_P2'
p5979
g0
(g117
g2
Ntp5980
Rp5981
(dp5982
g14
I00
sg32
I01
sg64
F0.3
sg15
I00
sbsS'mLC_P1'
p5983
g0
(g117
g2
Ntp5984
Rp5985
(dp5986
g14
I00
sg32
I01
sg64
F0.618
sg15
I00
sbsS'mLC_P0'
p5987
g0
(g117
g2
Ntp5988
Rp5989
(dp5990
g14
I00
sg32
I01
sg64
F-0.326
sg15
I00
sbsS'useLegacyError'
p5991
g0
(g60
g2
Ntp5992
Rp5993
(dp5994
g14
I00
sg32
I01
sg64
I00
sg15
I00
sbsS'mTIB_P1'
p5995
g0
(g117
g2
Ntp5996
Rp5997
(dp5998
g14
I00
sg32
I01
sg64
F0.202
sg15
I00
sbsS'mTEC_P1'
p5999
g0
(g117
g2
Ntp6000
Rp6001
(dp6002
g14
I00
sg32
I01
sg64
F0.471
sg15
I00
sbsS'mTEC_P0'
p6003
g0
(g117
g2
Ntp6004
Rp6005
(dp6006
g14
I00
sg32
I01
sg64
F-1.885
sg15
I00
sbsS'mTOB_P0'
p6007
g0
(g117
g2
Ntp6008
Rp6009
(dp6010
g14
I00
sg32
I01
sg64
F-1.026
sg15
I00
sbsS'mTOB_P1'
p6011
g0
(g117
g2
Ntp6012
Rp6013
(dp6014
g14
I00
sg32
I01
sg64
F0.253
sg15
I00
sbsS'mTIB_P0'
p6015
g0
(g117
g2
Ntp6016
Rp6017
(dp6018
g14
I00
sg32
I01
sg64
F-0.742
sg15
I00
sbsg11
(lp6019
g5975
ag5979
ag5983
ag5987
ag5991
ag5999
ag6003
ag6007
ag6011
ag6015
ag5995
aS'mTID_P0'
p6020
aS'mTID_P1'
p6021
asg6020
g0
(g117
g2
Ntp6022
Rp6023
(dp6024
g14
I00
sg32
I01
sg64
F-1.427
sg15
I00
sbsg6021
g0
(g117
g2
Ntp6025
Rp6026
(dp6027
g14
I00
sg32
I01
sg64
F0.433
sg15
I00
sbsg15
I00
sbsg16
I4
sg5337
g0
(g74
g2
Ntp6028
Rp6029
(dp6030
g14
I00
sg32
I01
sg64
S'StripCPEfromTrackAngle'
p6031
sg15
I00
sbsg5624
g0
(g74
g2
Ntp6032
Rp6033
(dp6034
g14
I00
sg32
I01
sg64
g6031
sg15
I00
sbsg17
S'/cvmfs/cms.cern.ch/slc6_amd64_gcc491/cms/cmssw-patch/CMSSW_7_5_8_patch3/python/RecoLocalTracker/SiStripRecHitConverter/StripCPEfromTrackAngle_cfi.py'
p6035
sg34
S'StripCPEfromTrackAngleESProducer'
p6036
sg35
g5639
sbsI44769680
g1144
sI45756880
g84
sI44803408
g2403
sI45789712
g731
sI45757136
g224
sI44963408
g3547
ssg5790
g5740
sg513
g504
sg306
g545
sg3761
g3727
sg5539
g5529
sg5737
g5734
sg5559
g5556
sg5661
g5658
sg282
g523
sg148
g91
sg5597
g5582
sg161
g150
sg375
g353
sg5579
g5564
sg5638
g5621
sg4166
g4132
sg5939
g5933
sg73
g52
sg4301
g4267
sg839
g841
sg858
g860
sg877
g879
sg3986
g3952
sg3851
g3817
sg912
g914
sg920
g922
sg5809
g5793
sg5166
g3495
sg5360
g5362
sg5172
g5175
sg514
g516
sg5732
g5729
sg6036
g5969
sS'_Process__aliases'
p6037
(dp6038
sg4526
g4492
sg2304
g2306
sg4616
g4582
sg4661
g4627
sg5727
g5724
sg857
g848
sg876
g867
sg911
g902
sg674
g665
sg3896
g3862
sg4481
g4447
sg5650
g5641
sg5111
g5077
sg4976
g4942
sg5817
g5814
sg5928
g5925
sg712
g696
sg494
g485
sg5527
g5524
sg3806
g3772
sg3941
g3907
sS'_Process__subProcess'
p6039
Nsg5716
g5691
sg5553
g5541
sg4706
g4672
sg5444
g5446
sg3626
g3592
sg4256
g4222
sg5963
g5942
sg222
g224
sS'_Process__schedule'
p6040
g5168
sg5832
g5819
sg693
g677
sg5673
g5663
sg5021
g4987
sS'_Process__modifiers'
p6041
(tsS'_Process__filters'
p6042
(dp6043
g3004
g3006
sg143
g128
sg693
g677
sg494
g485
sg513
g504
sg674
g665
sg613
g604
sg632
g623
sg243
g231
sg5290
g5292
sg712
g696
sg790
g766
sg824
g809
sg257
g248
sg857
g848
sg876
g867
sg911
g902
sg161
g150
ssg5156
g5122
sg3671
g3637
sg649
g651
sg4211
g4177
sS'_Process__esproducers'
p6044
(dp6045
g6
g9
sg5832
g5819
sg1034
g1036
sg5661
g5658
sg5273
g5275
sg6036
g5969
sg2996
g2998
sg5326
g5328
sg5727
g5724
sg1142
g1144
sg5650
g5641
sg5597
g5582
sg5963
g5942
sg5817
g5814
sg5928
g5925
sg5527
g5524
sg5461
g5463
sg5499
g5501
sg5507
g5509
sg5732
g5729
sg3302
g3304
sg5716
g5691
sg1919
g1921
sg3402
g3404
sg5553
g5541
sg5790
g5740
sg5331
g5333
sg5539
g5529
sg5673
g5663
sg5559
g5556
sg5256
g5258
sg2572
g2574
sg5737
g5734
sg2364
g2366
sg5209
g5211
sg5579
g5564
sg5182
g5184
sg5638
g5621
sg2567
g2569
sg5939
g5933
sg5240
g5242
sg5688
g5681
sg5809
g5793
ssg495
g497
sS'_Process__partialschedules'
p6046
(dp6047
sg763
g746
sg5688
g5681
sb.